Archive member included to satisfy reference by file (symbol)

.build/obj_sofle_rev1_EGF2/serial_protocol.a(serial_protocol.o)
                              .build/obj_sofle_rev1_EGF2/quantum/split_common/transport.o (symbol from plugin) (soft_serial_target_init)
.build/obj_sofle_rev1_EGF2/serial_vendor.a(serial_vendor.o)
                              .build/obj_sofle_rev1_EGF2/serial_protocol.a(serial_protocol.o) (serial_transport_driver_clear)
.build/obj_sofle_rev1_EGF2/i2c_master.a(i2c_master.o)
                              .build/obj_sofle_rev1_EGF2/ssd1306_sh1106.o (symbol from plugin) (i2c_init)
/usr/lib/gcc/arm-none-eabi/8.3.1/thumb/v6-m/nofp/libgcc.a(_dvmd_tls.o)
                              .build/obj_sofle_rev1/./lib/pico-sdk/src/rp2_common/pico_divider/divider.o (__aeabi_idiv0)
/usr/lib/gcc/arm-none-eabi/8.3.1/thumb/v6-m/nofp/libgcc.a(_fixunssfsi.o)
                              .build/obj_sofle_rev1_EGF2/serial_vendor.a(serial_vendor.o) (__aeabi_f2uiz)
/usr/lib/gcc/arm-none-eabi/8.3.1/thumb/v6-m/nofp/libgcc.a(divsf3.o)
                              .build/obj_sofle_rev1_EGF2/serial_vendor.a(serial_vendor.o) (__aeabi_fdiv)
/usr/lib/gcc/arm-none-eabi/8.3.1/thumb/v6-m/nofp/libgcc.a(mulsf3.o)
                              .build/obj_sofle_rev1_EGF2/serial_vendor.a(serial_vendor.o) (__aeabi_fmul)
/usr/lib/gcc/arm-none-eabi/8.3.1/thumb/v6-m/nofp/libgcc.a(subsf3.o)
                              .build/obj_sofle_rev1_EGF2/serial_vendor.a(serial_vendor.o) (__aeabi_fsub)
/usr/lib/gcc/arm-none-eabi/8.3.1/thumb/v6-m/nofp/libgcc.a(fixsfsi.o)
                              /usr/lib/gcc/arm-none-eabi/8.3.1/thumb/v6-m/nofp/libgcc.a(_fixunssfsi.o) (__aeabi_f2iz)
/usr/lib/gcc/arm-none-eabi/8.3.1/thumb/v6-m/nofp/libgcc.a(floatunsisf.o)
                              .build/obj_sofle_rev1_EGF2/serial_vendor.a(serial_vendor.o) (__aeabi_ui2f)
/usr/lib/gcc/arm-none-eabi/8.3.1/thumb/v6-m/nofp/libgcc.a(_arm_cmpsf2.o)
                              /usr/lib/gcc/arm-none-eabi/8.3.1/thumb/v6-m/nofp/libgcc.a(_fixunssfsi.o) (__aeabi_fcmpge)
/usr/lib/gcc/arm-none-eabi/8.3.1/thumb/v6-m/nofp/libgcc.a(_clzsi2.o)
                              /usr/lib/gcc/arm-none-eabi/8.3.1/thumb/v6-m/nofp/libgcc.a(divsf3.o) (__clzsi2)
/usr/lib/gcc/arm-none-eabi/8.3.1/thumb/v6-m/nofp/libgcc.a(eqsf2.o)
                              /usr/lib/gcc/arm-none-eabi/8.3.1/thumb/v6-m/nofp/libgcc.a(_arm_cmpsf2.o) (__eqsf2)
/usr/lib/gcc/arm-none-eabi/8.3.1/thumb/v6-m/nofp/libgcc.a(gesf2.o)
                              /usr/lib/gcc/arm-none-eabi/8.3.1/thumb/v6-m/nofp/libgcc.a(_arm_cmpsf2.o) (__gesf2)
/usr/lib/gcc/arm-none-eabi/8.3.1/thumb/v6-m/nofp/libgcc.a(lesf2.o)
                              /usr/lib/gcc/arm-none-eabi/8.3.1/thumb/v6-m/nofp/libgcc.a(_arm_cmpsf2.o) (__lesf2)
/usr/lib/gcc/arm-none-eabi/8.3.1/../../../arm-none-eabi/lib/thumb/v6-m/nofp/libg_nano.a(lib_a-ctype_.o)
                              .build/obj_sofle_rev1_EGF2/quantum/send_string/send_string.o (symbol from plugin) (_ctype_)
/usr/lib/gcc/arm-none-eabi/8.3.1/../../../arm-none-eabi/lib/thumb/v6-m/nofp/libg_nano.a(lib_a-errno.o)
                              .build/obj_sofle_rev1/platforms/chibios/syscall-fallbacks.o (symbol from plugin) (__errno)
/usr/lib/gcc/arm-none-eabi/8.3.1/../../../arm-none-eabi/lib/thumb/v6-m/nofp/libg_nano.a(lib_a-impure.o)
                              /usr/lib/gcc/arm-none-eabi/8.3.1/../../../arm-none-eabi/lib/thumb/v6-m/nofp/libg_nano.a(lib_a-errno.o) (_impure_ptr)
/usr/lib/gcc/arm-none-eabi/8.3.1/../../../arm-none-eabi/lib/thumb/v6-m/nofp/libg_nano.a(lib_a-memcpy-stub.o)
                              .build/obj_sofle_rev1_EGF2/serial_vendor.a(serial_vendor.o) (memcpy)
/usr/lib/gcc/arm-none-eabi/8.3.1/../../../arm-none-eabi/lib/thumb/v6-m/nofp/libg_nano.a(lib_a-rand.o)
                              .build/obj_sofle_rev1_EGF2/quantum/rgblight/rgblight.o (symbol from plugin) (rand)
/usr/lib/gcc/arm-none-eabi/8.3.1/../../../arm-none-eabi/lib/thumb/v6-m/nofp/libg_nano.a(lib_a-assert.o)
                              /usr/lib/gcc/arm-none-eabi/8.3.1/../../../arm-none-eabi/lib/thumb/v6-m/nofp/libg_nano.a(lib_a-rand.o) (__assert_func)
/usr/lib/gcc/arm-none-eabi/8.3.1/../../../arm-none-eabi/lib/thumb/v6-m/nofp/libg_nano.a(lib_a-fprintf.o)
                              /usr/lib/gcc/arm-none-eabi/8.3.1/../../../arm-none-eabi/lib/thumb/v6-m/nofp/libg_nano.a(lib_a-assert.o) (fiprintf)
/usr/lib/gcc/arm-none-eabi/8.3.1/../../../arm-none-eabi/lib/thumb/v6-m/nofp/libg_nano.a(lib_a-malloc.o)
                              /usr/lib/gcc/arm-none-eabi/8.3.1/../../../arm-none-eabi/lib/thumb/v6-m/nofp/libg_nano.a(lib_a-rand.o) (malloc)
/usr/lib/gcc/arm-none-eabi/8.3.1/../../../arm-none-eabi/lib/thumb/v6-m/nofp/libg_nano.a(lib_a-nano-freer.o)
                              /usr/lib/gcc/arm-none-eabi/8.3.1/../../../arm-none-eabi/lib/thumb/v6-m/nofp/libg_nano.a(lib_a-malloc.o) (_free_r)
/usr/lib/gcc/arm-none-eabi/8.3.1/../../../arm-none-eabi/lib/thumb/v6-m/nofp/libg_nano.a(lib_a-nano-mallocr.o)
                              /usr/lib/gcc/arm-none-eabi/8.3.1/../../../arm-none-eabi/lib/thumb/v6-m/nofp/libg_nano.a(lib_a-malloc.o) (_malloc_r)
/usr/lib/gcc/arm-none-eabi/8.3.1/../../../arm-none-eabi/lib/thumb/v6-m/nofp/libg_nano.a(lib_a-nano-vfprintf.o)
                              /usr/lib/gcc/arm-none-eabi/8.3.1/../../../arm-none-eabi/lib/thumb/v6-m/nofp/libg_nano.a(lib_a-fprintf.o) (_vfprintf_r)
/usr/lib/gcc/arm-none-eabi/8.3.1/../../../arm-none-eabi/lib/thumb/v6-m/nofp/libg_nano.a(lib_a-nano-vfprintf_i.o)
                              /usr/lib/gcc/arm-none-eabi/8.3.1/../../../arm-none-eabi/lib/thumb/v6-m/nofp/libg_nano.a(lib_a-nano-vfprintf.o) (_printf_i)
/usr/lib/gcc/arm-none-eabi/8.3.1/../../../arm-none-eabi/lib/thumb/v6-m/nofp/libg_nano.a(lib_a-wbuf.o)
                              /usr/lib/gcc/arm-none-eabi/8.3.1/../../../arm-none-eabi/lib/thumb/v6-m/nofp/libg_nano.a(lib_a-nano-vfprintf.o) (__swbuf_r)
/usr/lib/gcc/arm-none-eabi/8.3.1/../../../arm-none-eabi/lib/thumb/v6-m/nofp/libg_nano.a(lib_a-wsetup.o)
                              /usr/lib/gcc/arm-none-eabi/8.3.1/../../../arm-none-eabi/lib/thumb/v6-m/nofp/libg_nano.a(lib_a-nano-vfprintf.o) (__swsetup_r)
/usr/lib/gcc/arm-none-eabi/8.3.1/../../../arm-none-eabi/lib/thumb/v6-m/nofp/libg_nano.a(lib_a-abort.o)
                              /usr/lib/gcc/arm-none-eabi/8.3.1/../../../arm-none-eabi/lib/thumb/v6-m/nofp/libg_nano.a(lib_a-assert.o) (abort)
/usr/lib/gcc/arm-none-eabi/8.3.1/../../../arm-none-eabi/lib/thumb/v6-m/nofp/libg_nano.a(lib_a-fflush.o)
                              /usr/lib/gcc/arm-none-eabi/8.3.1/../../../arm-none-eabi/lib/thumb/v6-m/nofp/libg_nano.a(lib_a-wbuf.o) (_fflush_r)
/usr/lib/gcc/arm-none-eabi/8.3.1/../../../arm-none-eabi/lib/thumb/v6-m/nofp/libg_nano.a(lib_a-findfp.o)
                              /usr/lib/gcc/arm-none-eabi/8.3.1/../../../arm-none-eabi/lib/thumb/v6-m/nofp/libg_nano.a(lib_a-nano-vfprintf.o) (__sinit)
/usr/lib/gcc/arm-none-eabi/8.3.1/../../../arm-none-eabi/lib/thumb/v6-m/nofp/libg_nano.a(lib_a-fvwrite.o)
                              /usr/lib/gcc/arm-none-eabi/8.3.1/../../../arm-none-eabi/lib/thumb/v6-m/nofp/libg_nano.a(lib_a-nano-vfprintf.o) (__sfvwrite_r)
/usr/lib/gcc/arm-none-eabi/8.3.1/../../../arm-none-eabi/lib/thumb/v6-m/nofp/libg_nano.a(lib_a-fwalk.o)
                              /usr/lib/gcc/arm-none-eabi/8.3.1/../../../arm-none-eabi/lib/thumb/v6-m/nofp/libg_nano.a(lib_a-findfp.o) (_fwalk)
/usr/lib/gcc/arm-none-eabi/8.3.1/../../../arm-none-eabi/lib/thumb/v6-m/nofp/libg_nano.a(lib_a-makebuf.o)
                              /usr/lib/gcc/arm-none-eabi/8.3.1/../../../arm-none-eabi/lib/thumb/v6-m/nofp/libg_nano.a(lib_a-wsetup.o) (__smakebuf_r)
/usr/lib/gcc/arm-none-eabi/8.3.1/../../../arm-none-eabi/lib/thumb/v6-m/nofp/libg_nano.a(lib_a-memchr-stub.o)
                              /usr/lib/gcc/arm-none-eabi/8.3.1/../../../arm-none-eabi/lib/thumb/v6-m/nofp/libg_nano.a(lib_a-nano-vfprintf.o) (memchr)
/usr/lib/gcc/arm-none-eabi/8.3.1/../../../arm-none-eabi/lib/thumb/v6-m/nofp/libg_nano.a(lib_a-memmove.o)
                              /usr/lib/gcc/arm-none-eabi/8.3.1/../../../arm-none-eabi/lib/thumb/v6-m/nofp/libg_nano.a(lib_a-fvwrite.o) (memmove)
/usr/lib/gcc/arm-none-eabi/8.3.1/../../../arm-none-eabi/lib/thumb/v6-m/nofp/libg_nano.a(lib_a-memset.o)
                              /usr/lib/gcc/arm-none-eabi/8.3.1/../../../arm-none-eabi/lib/thumb/v6-m/nofp/libg_nano.a(lib_a-findfp.o) (memset)
/usr/lib/gcc/arm-none-eabi/8.3.1/../../../arm-none-eabi/lib/thumb/v6-m/nofp/libg_nano.a(lib_a-mlock.o)
                              /usr/lib/gcc/arm-none-eabi/8.3.1/../../../arm-none-eabi/lib/thumb/v6-m/nofp/libg_nano.a(lib_a-nano-freer.o) (__malloc_lock)
/usr/lib/gcc/arm-none-eabi/8.3.1/../../../arm-none-eabi/lib/thumb/v6-m/nofp/libg_nano.a(lib_a-nano-reallocr.o)
                              /usr/lib/gcc/arm-none-eabi/8.3.1/../../../arm-none-eabi/lib/thumb/v6-m/nofp/libg_nano.a(lib_a-fvwrite.o) (_realloc_r)
/usr/lib/gcc/arm-none-eabi/8.3.1/../../../arm-none-eabi/lib/thumb/v6-m/nofp/libg_nano.a(lib_a-signal.o)
                              /usr/lib/gcc/arm-none-eabi/8.3.1/../../../arm-none-eabi/lib/thumb/v6-m/nofp/libg_nano.a(lib_a-abort.o) (raise)
/usr/lib/gcc/arm-none-eabi/8.3.1/../../../arm-none-eabi/lib/thumb/v6-m/nofp/libg_nano.a(lib_a-signalr.o)
                              /usr/lib/gcc/arm-none-eabi/8.3.1/../../../arm-none-eabi/lib/thumb/v6-m/nofp/libg_nano.a(lib_a-signal.o) (_kill_r)
/usr/lib/gcc/arm-none-eabi/8.3.1/../../../arm-none-eabi/lib/thumb/v6-m/nofp/libg_nano.a(lib_a-stdio.o)
                              /usr/lib/gcc/arm-none-eabi/8.3.1/../../../arm-none-eabi/lib/thumb/v6-m/nofp/libg_nano.a(lib_a-findfp.o) (__sread)
/usr/lib/gcc/arm-none-eabi/8.3.1/../../../arm-none-eabi/lib/thumb/v6-m/nofp/libg_nano.a(lib_a-nano-msizer.o)
                              /usr/lib/gcc/arm-none-eabi/8.3.1/../../../arm-none-eabi/lib/thumb/v6-m/nofp/libg_nano.a(lib_a-nano-reallocr.o) (_malloc_usable_size_r)
/usr/lib/gcc/arm-none-eabi/8.3.1/../../../arm-none-eabi/lib/thumb/v6-m/nofp/libg_nano.a(lib_a-reent.o)
                              /usr/lib/gcc/arm-none-eabi/8.3.1/../../../arm-none-eabi/lib/thumb/v6-m/nofp/libg_nano.a(lib_a-signalr.o) (errno)
/usr/lib/gcc/arm-none-eabi/8.3.1/thumb/v6-m/nofp/libgcc.a(_thumb1_case_uqi.o)
                              /tmp/ccxW9Zd7.ltrans0.ltrans.o (__gnu_thumb1_case_uqi)
/usr/lib/gcc/arm-none-eabi/8.3.1/thumb/v6-m/nofp/libgcc.a(_thumb1_case_shi.o)
                              /tmp/ccxW9Zd7.ltrans0.ltrans.o (__gnu_thumb1_case_shi)
/usr/lib/gcc/arm-none-eabi/8.3.1/thumb/v6-m/nofp/libgcc.a(_thumb1_case_uhi.o)
                              /tmp/ccxW9Zd7.ltrans0.ltrans.o (__gnu_thumb1_case_uhi)
/usr/lib/gcc/arm-none-eabi/8.3.1/thumb/v6-m/nofp/libgcc.a(_ctzsi2.o)
                              /tmp/ccxW9Zd7.ltrans0.ltrans.o (__ctzsi2)
/usr/lib/gcc/arm-none-eabi/8.3.1/thumb/v6-m/nofp/libgcc.a(floatsisf.o)
                              /tmp/ccxW9Zd7.ltrans0.ltrans.o (__aeabi_i2f)
/usr/lib/gcc/arm-none-eabi/8.3.1/../../../arm-none-eabi/lib/thumb/v6-m/nofp/libg_nano.a(lib_a-memcmp.o)
                              /tmp/ccxW9Zd7.ltrans0.ltrans.o (memcmp)
/usr/lib/gcc/arm-none-eabi/8.3.1/../../../arm-none-eabi/lib/thumb/v6-m/nofp/libg_nano.a(lib_a-strlen-stub.o)
                              /tmp/ccxW9Zd7.ltrans0.ltrans.o (strlen)

Allocating common symbols
Common symbol       size              file

event_queue         0x10              .build/obj_sofle_rev1_EGF2/protocol/chibios/usb_main.o (symbol from plugin)
rgblight_config     0x8               .build/obj_sofle_rev1_EGF2/quantum/rgblight/rgblight.o (symbol from plugin)
keymap_config       0x2               .build/obj_sofle_rev1_EGF2/quantum/bootmagic/magic.o (symbol from plugin)
event_queue_head    0x1               .build/obj_sofle_rev1_EGF2/protocol/chibios/usb_main.o (symbol from plugin)
thatHand            0x1               .build/obj_sofle_rev1_EGF2/quantum/matrix_common.o (symbol from plugin)
errno               0x4               /usr/lib/gcc/arm-none-eabi/8.3.1/../../../arm-none-eabi/lib/thumb/v6-m/nofp/libg_nano.a(lib_a-reent.o)
oled_buffer         0x200             .build/obj_sofle_rev1_EGF2/ssd1306_sh1106.o (symbol from plugin)
SystemCoreClock     0x4               .build/obj_sofle_rev1/lib/chibios/os/hal/ports/RP/RP2040/hal_lld.o (symbol from plugin)
sync_timer_ms       0x4               .build/obj_sofle_rev1_EGF2/quantum/sync_timer.o (symbol from plugin)
layer_state_str     0x46              .build/obj_sofle_rev1_EGF2/quantum/keymap_introspection.o (symbol from plugin)
led                 0xd2              .build/obj_sofle_rev1_EGF2/quantum/rgblight/rgblight.o (symbol from plugin)
oled_update_timeout
                    0x2               .build/obj_sofle_rev1_EGF2/ssd1306_sh1106.o (symbol from plugin)
raw_matrix          0xa               .build/obj_sofle_rev1_EGF2/quantum/matrix_common.o (symbol from plugin)
ch_system           0x10              .build/obj_sofle_rev1/lib/chibios/os/rt/src/chsys.o (symbol from plugin)
oled_timeout        0x4               .build/obj_sofle_rev1_EGF2/ssd1306_sh1106.o (symbol from plugin)
USBD1               0xe4              .build/obj_sofle_rev1/lib/chibios-contrib/os/hal/ports/RP/LLD/USBDv1/hal_usb_lld.o (symbol from plugin)
matrix              0xa               .build/obj_sofle_rev1_EGF2/quantum/matrix_common.o (symbol from plugin)
tp_buttons          0x4               .build/obj_sofle_rev1_EGF2/quantum/action.o (symbol from plugin)
event_queue_tail    0x1               .build/obj_sofle_rev1_EGF2/protocol/chibios/usb_main.o (symbol from plugin)
I2CD2               0x38              /tmp/ccxW9Zd7.ltrans0.ltrans.o
ch_memcore          0x8               .build/obj_sofle_rev1_EGF2/./lib/chibios/os/oslib/src/chmemcore.o (symbol from plugin)
oled_cursor         0x4               .build/obj_sofle_rev1_EGF2/ssd1306_sh1106.o (symbol from plugin)
thisHand            0x1               .build/obj_sofle_rev1_EGF2/quantum/matrix_common.o (symbol from plugin)
SPID0               0x30              .build/obj_sofle_rev1/lib/chibios/os/hal/ports/RP/LLD/SPIv1/hal_spi_lld.o (symbol from plugin)
st_callbacks        0x10              .build/obj_sofle_rev1/lib/chibios/os/hal/src/hal_st.o (symbol from plugin)

Discarded input sections

 .comment       0x0000000000000000     0x32ee /tmp/cc4Fj2P6debugobj
 .noinit        0x0000000000000000        0x0 /tmp/cc4Fj2P6debugobj
 .text          0x0000000000000000        0x0 /tmp/ccxW9Zd7.ltrans0.ltrans.o
 .data          0x0000000000000000        0x0 /tmp/ccxW9Zd7.ltrans0.ltrans.o
 .bss           0x0000000000000000        0x0 /tmp/ccxW9Zd7.ltrans0.ltrans.o
 .text.putchar_wrapper
                0x0000000000000000       0x10 /tmp/ccxW9Zd7.ltrans0.ltrans.o
 .text.putchar_via_gadget
                0x0000000000000000       0x24 /tmp/ccxW9Zd7.ltrans0.ltrans.o
 .text.out_rev_
                0x0000000000000000       0x56 /tmp/ccxW9Zd7.ltrans0.ltrans.o
 .text.print_integer
                0x0000000000000000      0x174 /tmp/ccxW9Zd7.ltrans0.ltrans.o
 .text.vsnprintf_impl.constprop.29
                0x0000000000000000      0x38c /tmp/ccxW9Zd7.ltrans0.ltrans.o
 .text._gettimeofday_r
                0x0000000000000000        0x8 /tmp/ccxW9Zd7.ltrans0.ltrans.o
 .text._link_r  0x0000000000000000        0x8 /tmp/ccxW9Zd7.ltrans0.ltrans.o
 .text._times_r
                0x0000000000000000        0xa /tmp/ccxW9Zd7.ltrans0.ltrans.o
 .text._unlink_r
                0x0000000000000000        0x8 /tmp/ccxW9Zd7.ltrans0.ltrans.o
 .text.__cxa_pure_virtual
                0x0000000000000000        0xc /tmp/ccxW9Zd7.ltrans0.ltrans.o
 .text._open_r  0x0000000000000000        0xa /tmp/ccxW9Zd7.ltrans0.ltrans.o
 .text.i2cMasterReceiveTimeout
                0x0000000000000000       0xb8 /tmp/ccxW9Zd7.ltrans0.ltrans.o
 .text.vsnprintf
                0x0000000000000000       0x34 /tmp/ccxW9Zd7.ltrans0.ltrans.o
 .text.snprintf
                0x0000000000000000       0x16 /tmp/ccxW9Zd7.ltrans0.ltrans.o
 .text.vsprintf
                0x0000000000000000       0x14 /tmp/ccxW9Zd7.ltrans0.ltrans.o
 .text.sprintf  0x0000000000000000       0x16 /tmp/ccxW9Zd7.ltrans0.ltrans.o
 .text.vprintf  0x0000000000000000       0x28 /tmp/ccxW9Zd7.ltrans0.ltrans.o
 .bss.__dso_handle
                0x0000000000000000        0x4 /tmp/ccxW9Zd7.ltrans0.ltrans.o
 .bss.keyboard_idle_count
                0x0000000000000000        0x2 /tmp/ccxW9Zd7.ltrans0.ltrans.o
 .rodata.__cxa_pure_virtual.str1.1
                0x0000000000000000        0xd /tmp/ccxW9Zd7.ltrans0.ltrans.o
 .rodata.vsnprintf_impl.constprop.29.str1.1
                0x0000000000000000        0xd /tmp/ccxW9Zd7.ltrans0.ltrans.o
 .text          0x0000000000000000        0x0 .build/obj_sofle_rev1_EGF2/serial_protocol.a(serial_protocol.o)
 .data          0x0000000000000000        0x0 .build/obj_sofle_rev1_EGF2/serial_protocol.a(serial_protocol.o)
 .bss           0x0000000000000000        0x0 .build/obj_sofle_rev1_EGF2/serial_protocol.a(serial_protocol.o)
 .text          0x0000000000000000        0x0 .build/obj_sofle_rev1_EGF2/serial_vendor.a(serial_vendor.o)
 .data          0x0000000000000000        0x0 .build/obj_sofle_rev1_EGF2/serial_vendor.a(serial_vendor.o)
 .bss           0x0000000000000000        0x0 .build/obj_sofle_rev1_EGF2/serial_vendor.a(serial_vendor.o)
 .text          0x0000000000000000        0x0 .build/obj_sofle_rev1_EGF2/i2c_master.a(i2c_master.o)
 .data          0x0000000000000000        0x0 .build/obj_sofle_rev1_EGF2/i2c_master.a(i2c_master.o)
 .bss           0x0000000000000000        0x0 .build/obj_sofle_rev1_EGF2/i2c_master.a(i2c_master.o)
 .text.i2c_start
                0x0000000000000000       0x20 .build/obj_sofle_rev1_EGF2/i2c_master.a(i2c_master.o)
 .text.i2c_receive
                0x0000000000000000       0x64 .build/obj_sofle_rev1_EGF2/i2c_master.a(i2c_master.o)
 .text.i2c_writeReg16
                0x0000000000000000       0xa0 .build/obj_sofle_rev1_EGF2/i2c_master.a(i2c_master.o)
 .text.i2c_readReg
                0x0000000000000000       0x78 .build/obj_sofle_rev1_EGF2/i2c_master.a(i2c_master.o)
 .text.i2c_readReg16
                0x0000000000000000       0x78 .build/obj_sofle_rev1_EGF2/i2c_master.a(i2c_master.o)
 .data          0x0000000000000000        0x0 .build/obj_sofle_rev1_EGF2/./lib/chibios/os/common/startup/ARMCMx/compilers/GCC/crt0_v6m.o
 .bss           0x0000000000000000        0x0 .build/obj_sofle_rev1_EGF2/./lib/chibios/os/common/startup/ARMCMx/compilers/GCC/crt0_v6m.o
 .data          0x0000000000000000        0x0 .build/obj_sofle_rev1_EGF2/./lib/chibios/os/common/startup/ARMCMx/compilers/GCC/vectors.o
 .bss           0x0000000000000000        0x0 .build/obj_sofle_rev1_EGF2/./lib/chibios/os/common/startup/ARMCMx/compilers/GCC/vectors.o
 .data          0x0000000000000000        0x0 .build/obj_sofle_rev1_EGF2/./lib/chibios/os/common/ports/ARMv6-M-RP2/compilers/GCC/chcoreasm.o
 .bss           0x0000000000000000        0x0 .build/obj_sofle_rev1_EGF2/./lib/chibios/os/common/ports/ARMv6-M-RP2/compilers/GCC/chcoreasm.o
 .text          0x0000000000000000        0x0 .build/obj_sofle_rev1/./lib/pico-sdk/src/rp2_common/pico_divider/divider.o
 .data          0x0000000000000000        0x0 .build/obj_sofle_rev1/./lib/pico-sdk/src/rp2_common/pico_divider/divider.o
 .bss           0x0000000000000000        0x0 .build/obj_sofle_rev1/./lib/pico-sdk/src/rp2_common/pico_divider/divider.o
 .time_critical.divmod_s64s64_rem
                0x0000000000000000        0xc .build/obj_sofle_rev1/./lib/pico-sdk/src/rp2_common/pico_divider/divider.o
 .time_critical.divmod_u64u64_rem
                0x0000000000000000        0xc .build/obj_sofle_rev1/./lib/pico-sdk/src/rp2_common/pico_divider/divider.o
 .text          0x0000000000000000        0x0 .build/obj_sofle_rev1/./lib/pico-sdk/src/rp2_common/pico_int64_ops/pico_int64_ops_aeabi.o
 .data          0x0000000000000000        0x0 .build/obj_sofle_rev1/./lib/pico-sdk/src/rp2_common/pico_int64_ops/pico_int64_ops_aeabi.o
 .bss           0x0000000000000000        0x0 .build/obj_sofle_rev1/./lib/pico-sdk/src/rp2_common/pico_int64_ops/pico_int64_ops_aeabi.o
 .data          0x0000000000000000        0x0 /usr/lib/gcc/arm-none-eabi/8.3.1/thumb/v6-m/nofp/libgcc.a(_dvmd_tls.o)
 .bss           0x0000000000000000        0x0 /usr/lib/gcc/arm-none-eabi/8.3.1/thumb/v6-m/nofp/libgcc.a(_dvmd_tls.o)
 .data          0x0000000000000000        0x0 /usr/lib/gcc/arm-none-eabi/8.3.1/thumb/v6-m/nofp/libgcc.a(_fixunssfsi.o)
 .bss           0x0000000000000000        0x0 /usr/lib/gcc/arm-none-eabi/8.3.1/thumb/v6-m/nofp/libgcc.a(_fixunssfsi.o)
 .data          0x0000000000000000        0x0 /usr/lib/gcc/arm-none-eabi/8.3.1/thumb/v6-m/nofp/libgcc.a(divsf3.o)
 .bss           0x0000000000000000        0x0 /usr/lib/gcc/arm-none-eabi/8.3.1/thumb/v6-m/nofp/libgcc.a(divsf3.o)
 .data          0x0000000000000000        0x0 /usr/lib/gcc/arm-none-eabi/8.3.1/thumb/v6-m/nofp/libgcc.a(mulsf3.o)
 .bss           0x0000000000000000        0x0 /usr/lib/gcc/arm-none-eabi/8.3.1/thumb/v6-m/nofp/libgcc.a(mulsf3.o)
 .data          0x0000000000000000        0x0 /usr/lib/gcc/arm-none-eabi/8.3.1/thumb/v6-m/nofp/libgcc.a(subsf3.o)
 .bss           0x0000000000000000        0x0 /usr/lib/gcc/arm-none-eabi/8.3.1/thumb/v6-m/nofp/libgcc.a(subsf3.o)
 .data          0x0000000000000000        0x0 /usr/lib/gcc/arm-none-eabi/8.3.1/thumb/v6-m/nofp/libgcc.a(fixsfsi.o)
 .bss           0x0000000000000000        0x0 /usr/lib/gcc/arm-none-eabi/8.3.1/thumb/v6-m/nofp/libgcc.a(fixsfsi.o)
 .data          0x0000000000000000        0x0 /usr/lib/gcc/arm-none-eabi/8.3.1/thumb/v6-m/nofp/libgcc.a(floatunsisf.o)
 .bss           0x0000000000000000        0x0 /usr/lib/gcc/arm-none-eabi/8.3.1/thumb/v6-m/nofp/libgcc.a(floatunsisf.o)
 .data          0x0000000000000000        0x0 /usr/lib/gcc/arm-none-eabi/8.3.1/thumb/v6-m/nofp/libgcc.a(_arm_cmpsf2.o)
 .bss           0x0000000000000000        0x0 /usr/lib/gcc/arm-none-eabi/8.3.1/thumb/v6-m/nofp/libgcc.a(_arm_cmpsf2.o)
 .data          0x0000000000000000        0x0 /usr/lib/gcc/arm-none-eabi/8.3.1/thumb/v6-m/nofp/libgcc.a(_clzsi2.o)
 .bss           0x0000000000000000        0x0 /usr/lib/gcc/arm-none-eabi/8.3.1/thumb/v6-m/nofp/libgcc.a(_clzsi2.o)
 .data          0x0000000000000000        0x0 /usr/lib/gcc/arm-none-eabi/8.3.1/thumb/v6-m/nofp/libgcc.a(eqsf2.o)
 .bss           0x0000000000000000        0x0 /usr/lib/gcc/arm-none-eabi/8.3.1/thumb/v6-m/nofp/libgcc.a(eqsf2.o)
 .data          0x0000000000000000        0x0 /usr/lib/gcc/arm-none-eabi/8.3.1/thumb/v6-m/nofp/libgcc.a(gesf2.o)
 .bss           0x0000000000000000        0x0 /usr/lib/gcc/arm-none-eabi/8.3.1/thumb/v6-m/nofp/libgcc.a(gesf2.o)
 .data          0x0000000000000000        0x0 /usr/lib/gcc/arm-none-eabi/8.3.1/thumb/v6-m/nofp/libgcc.a(lesf2.o)
 .bss           0x0000000000000000        0x0 /usr/lib/gcc/arm-none-eabi/8.3.1/thumb/v6-m/nofp/libgcc.a(lesf2.o)
 .data          0x0000000000000000        0x0 /usr/lib/gcc/arm-none-eabi/8.3.1/thumb/v6-m/nofp/libgcc.a(_thumb1_case_uqi.o)
 .bss           0x0000000000000000        0x0 /usr/lib/gcc/arm-none-eabi/8.3.1/thumb/v6-m/nofp/libgcc.a(_thumb1_case_uqi.o)
 .data          0x0000000000000000        0x0 /usr/lib/gcc/arm-none-eabi/8.3.1/thumb/v6-m/nofp/libgcc.a(_thumb1_case_shi.o)
 .bss           0x0000000000000000        0x0 /usr/lib/gcc/arm-none-eabi/8.3.1/thumb/v6-m/nofp/libgcc.a(_thumb1_case_shi.o)
 .data          0x0000000000000000        0x0 /usr/lib/gcc/arm-none-eabi/8.3.1/thumb/v6-m/nofp/libgcc.a(_thumb1_case_uhi.o)
 .bss           0x0000000000000000        0x0 /usr/lib/gcc/arm-none-eabi/8.3.1/thumb/v6-m/nofp/libgcc.a(_thumb1_case_uhi.o)
 .data          0x0000000000000000        0x0 /usr/lib/gcc/arm-none-eabi/8.3.1/thumb/v6-m/nofp/libgcc.a(_ctzsi2.o)
 .bss           0x0000000000000000        0x0 /usr/lib/gcc/arm-none-eabi/8.3.1/thumb/v6-m/nofp/libgcc.a(_ctzsi2.o)
 .data          0x0000000000000000        0x0 /usr/lib/gcc/arm-none-eabi/8.3.1/thumb/v6-m/nofp/libgcc.a(floatsisf.o)
 .bss           0x0000000000000000        0x0 /usr/lib/gcc/arm-none-eabi/8.3.1/thumb/v6-m/nofp/libgcc.a(floatsisf.o)
 .text          0x0000000000000000        0x0 /usr/lib/gcc/arm-none-eabi/8.3.1/../../../arm-none-eabi/lib/thumb/v6-m/nofp/libg_nano.a(lib_a-ctype_.o)
 .data          0x0000000000000000        0x0 /usr/lib/gcc/arm-none-eabi/8.3.1/../../../arm-none-eabi/lib/thumb/v6-m/nofp/libg_nano.a(lib_a-ctype_.o)
 .bss           0x0000000000000000        0x0 /usr/lib/gcc/arm-none-eabi/8.3.1/../../../arm-none-eabi/lib/thumb/v6-m/nofp/libg_nano.a(lib_a-ctype_.o)
 .text          0x0000000000000000        0xc /usr/lib/gcc/arm-none-eabi/8.3.1/../../../arm-none-eabi/lib/thumb/v6-m/nofp/libg_nano.a(lib_a-errno.o)
 .data          0x0000000000000000        0x0 /usr/lib/gcc/arm-none-eabi/8.3.1/../../../arm-none-eabi/lib/thumb/v6-m/nofp/libg_nano.a(lib_a-errno.o)
 .bss           0x0000000000000000        0x0 /usr/lib/gcc/arm-none-eabi/8.3.1/../../../arm-none-eabi/lib/thumb/v6-m/nofp/libg_nano.a(lib_a-errno.o)
 .debug_info    0x0000000000000000      0x953 /usr/lib/gcc/arm-none-eabi/8.3.1/../../../arm-none-eabi/lib/thumb/v6-m/nofp/libg_nano.a(lib_a-errno.o)
 .debug_abbrev  0x0000000000000000      0x198 /usr/lib/gcc/arm-none-eabi/8.3.1/../../../arm-none-eabi/lib/thumb/v6-m/nofp/libg_nano.a(lib_a-errno.o)
 .debug_aranges
                0x0000000000000000       0x20 /usr/lib/gcc/arm-none-eabi/8.3.1/../../../arm-none-eabi/lib/thumb/v6-m/nofp/libg_nano.a(lib_a-errno.o)
 .debug_line    0x0000000000000000      0x10e /usr/lib/gcc/arm-none-eabi/8.3.1/../../../arm-none-eabi/lib/thumb/v6-m/nofp/libg_nano.a(lib_a-errno.o)
 .debug_str     0x0000000000000000      0x5ed /usr/lib/gcc/arm-none-eabi/8.3.1/../../../arm-none-eabi/lib/thumb/v6-m/nofp/libg_nano.a(lib_a-errno.o)
 .comment       0x0000000000000000       0x4f /usr/lib/gcc/arm-none-eabi/8.3.1/../../../arm-none-eabi/lib/thumb/v6-m/nofp/libg_nano.a(lib_a-errno.o)
 .debug_frame   0x0000000000000000       0x20 /usr/lib/gcc/arm-none-eabi/8.3.1/../../../arm-none-eabi/lib/thumb/v6-m/nofp/libg_nano.a(lib_a-errno.o)
 .ARM.attributes
                0x0000000000000000       0x2c /usr/lib/gcc/arm-none-eabi/8.3.1/../../../arm-none-eabi/lib/thumb/v6-m/nofp/libg_nano.a(lib_a-errno.o)
 .text          0x0000000000000000        0x0 /usr/lib/gcc/arm-none-eabi/8.3.1/../../../arm-none-eabi/lib/thumb/v6-m/nofp/libg_nano.a(lib_a-impure.o)
 .bss           0x0000000000000000        0x0 /usr/lib/gcc/arm-none-eabi/8.3.1/../../../arm-none-eabi/lib/thumb/v6-m/nofp/libg_nano.a(lib_a-impure.o)
 .data          0x0000000000000000        0x0 /usr/lib/gcc/arm-none-eabi/8.3.1/../../../arm-none-eabi/lib/thumb/v6-m/nofp/libg_nano.a(lib_a-memcpy-stub.o)
 .bss           0x0000000000000000        0x0 /usr/lib/gcc/arm-none-eabi/8.3.1/../../../arm-none-eabi/lib/thumb/v6-m/nofp/libg_nano.a(lib_a-memcpy-stub.o)
 .data          0x0000000000000000        0x0 /usr/lib/gcc/arm-none-eabi/8.3.1/../../../arm-none-eabi/lib/thumb/v6-m/nofp/libg_nano.a(lib_a-rand.o)
 .bss           0x0000000000000000        0x0 /usr/lib/gcc/arm-none-eabi/8.3.1/../../../arm-none-eabi/lib/thumb/v6-m/nofp/libg_nano.a(lib_a-rand.o)
 .data          0x0000000000000000        0x0 /usr/lib/gcc/arm-none-eabi/8.3.1/../../../arm-none-eabi/lib/thumb/v6-m/nofp/libg_nano.a(lib_a-assert.o)
 .bss           0x0000000000000000        0x0 /usr/lib/gcc/arm-none-eabi/8.3.1/../../../arm-none-eabi/lib/thumb/v6-m/nofp/libg_nano.a(lib_a-assert.o)
 .data          0x0000000000000000        0x0 /usr/lib/gcc/arm-none-eabi/8.3.1/../../../arm-none-eabi/lib/thumb/v6-m/nofp/libg_nano.a(lib_a-fprintf.o)
 .bss           0x0000000000000000        0x0 /usr/lib/gcc/arm-none-eabi/8.3.1/../../../arm-none-eabi/lib/thumb/v6-m/nofp/libg_nano.a(lib_a-fprintf.o)
 .data          0x0000000000000000        0x0 /usr/lib/gcc/arm-none-eabi/8.3.1/../../../arm-none-eabi/lib/thumb/v6-m/nofp/libg_nano.a(lib_a-malloc.o)
 .bss           0x0000000000000000        0x0 /usr/lib/gcc/arm-none-eabi/8.3.1/../../../arm-none-eabi/lib/thumb/v6-m/nofp/libg_nano.a(lib_a-malloc.o)
 .data          0x0000000000000000        0x0 /usr/lib/gcc/arm-none-eabi/8.3.1/../../../arm-none-eabi/lib/thumb/v6-m/nofp/libg_nano.a(lib_a-nano-freer.o)
 .bss           0x0000000000000000        0x0 /usr/lib/gcc/arm-none-eabi/8.3.1/../../../arm-none-eabi/lib/thumb/v6-m/nofp/libg_nano.a(lib_a-nano-freer.o)
 .data          0x0000000000000000        0x0 /usr/lib/gcc/arm-none-eabi/8.3.1/../../../arm-none-eabi/lib/thumb/v6-m/nofp/libg_nano.a(lib_a-nano-mallocr.o)
 .data          0x0000000000000000        0x0 /usr/lib/gcc/arm-none-eabi/8.3.1/../../../arm-none-eabi/lib/thumb/v6-m/nofp/libg_nano.a(lib_a-nano-vfprintf.o)
 .bss           0x0000000000000000        0x0 /usr/lib/gcc/arm-none-eabi/8.3.1/../../../arm-none-eabi/lib/thumb/v6-m/nofp/libg_nano.a(lib_a-nano-vfprintf.o)
 .data          0x0000000000000000        0x0 /usr/lib/gcc/arm-none-eabi/8.3.1/../../../arm-none-eabi/lib/thumb/v6-m/nofp/libg_nano.a(lib_a-nano-vfprintf_i.o)
 .bss           0x0000000000000000        0x0 /usr/lib/gcc/arm-none-eabi/8.3.1/../../../arm-none-eabi/lib/thumb/v6-m/nofp/libg_nano.a(lib_a-nano-vfprintf_i.o)
 .data          0x0000000000000000        0x0 /usr/lib/gcc/arm-none-eabi/8.3.1/../../../arm-none-eabi/lib/thumb/v6-m/nofp/libg_nano.a(lib_a-wbuf.o)
 .bss           0x0000000000000000        0x0 /usr/lib/gcc/arm-none-eabi/8.3.1/../../../arm-none-eabi/lib/thumb/v6-m/nofp/libg_nano.a(lib_a-wbuf.o)
 .data          0x0000000000000000        0x0 /usr/lib/gcc/arm-none-eabi/8.3.1/../../../arm-none-eabi/lib/thumb/v6-m/nofp/libg_nano.a(lib_a-wsetup.o)
 .bss           0x0000000000000000        0x0 /usr/lib/gcc/arm-none-eabi/8.3.1/../../../arm-none-eabi/lib/thumb/v6-m/nofp/libg_nano.a(lib_a-wsetup.o)
 .data          0x0000000000000000        0x0 /usr/lib/gcc/arm-none-eabi/8.3.1/../../../arm-none-eabi/lib/thumb/v6-m/nofp/libg_nano.a(lib_a-abort.o)
 .bss           0x0000000000000000        0x0 /usr/lib/gcc/arm-none-eabi/8.3.1/../../../arm-none-eabi/lib/thumb/v6-m/nofp/libg_nano.a(lib_a-abort.o)
 .data          0x0000000000000000        0x0 /usr/lib/gcc/arm-none-eabi/8.3.1/../../../arm-none-eabi/lib/thumb/v6-m/nofp/libg_nano.a(lib_a-fflush.o)
 .bss           0x0000000000000000        0x0 /usr/lib/gcc/arm-none-eabi/8.3.1/../../../arm-none-eabi/lib/thumb/v6-m/nofp/libg_nano.a(lib_a-fflush.o)
 .data          0x0000000000000000        0x0 /usr/lib/gcc/arm-none-eabi/8.3.1/../../../arm-none-eabi/lib/thumb/v6-m/nofp/libg_nano.a(lib_a-findfp.o)
 .bss           0x0000000000000000        0x0 /usr/lib/gcc/arm-none-eabi/8.3.1/../../../arm-none-eabi/lib/thumb/v6-m/nofp/libg_nano.a(lib_a-findfp.o)
 .data          0x0000000000000000        0x0 /usr/lib/gcc/arm-none-eabi/8.3.1/../../../arm-none-eabi/lib/thumb/v6-m/nofp/libg_nano.a(lib_a-fvwrite.o)
 .bss           0x0000000000000000        0x0 /usr/lib/gcc/arm-none-eabi/8.3.1/../../../arm-none-eabi/lib/thumb/v6-m/nofp/libg_nano.a(lib_a-fvwrite.o)
 .data          0x0000000000000000        0x0 /usr/lib/gcc/arm-none-eabi/8.3.1/../../../arm-none-eabi/lib/thumb/v6-m/nofp/libg_nano.a(lib_a-fwalk.o)
 .bss           0x0000000000000000        0x0 /usr/lib/gcc/arm-none-eabi/8.3.1/../../../arm-none-eabi/lib/thumb/v6-m/nofp/libg_nano.a(lib_a-fwalk.o)
 .data          0x0000000000000000        0x0 /usr/lib/gcc/arm-none-eabi/8.3.1/../../../arm-none-eabi/lib/thumb/v6-m/nofp/libg_nano.a(lib_a-makebuf.o)
 .bss           0x0000000000000000        0x0 /usr/lib/gcc/arm-none-eabi/8.3.1/../../../arm-none-eabi/lib/thumb/v6-m/nofp/libg_nano.a(lib_a-makebuf.o)
 .data          0x0000000000000000        0x0 /usr/lib/gcc/arm-none-eabi/8.3.1/../../../arm-none-eabi/lib/thumb/v6-m/nofp/libg_nano.a(lib_a-memchr-stub.o)
 .bss           0x0000000000000000        0x0 /usr/lib/gcc/arm-none-eabi/8.3.1/../../../arm-none-eabi/lib/thumb/v6-m/nofp/libg_nano.a(lib_a-memchr-stub.o)
 .data          0x0000000000000000        0x0 /usr/lib/gcc/arm-none-eabi/8.3.1/../../../arm-none-eabi/lib/thumb/v6-m/nofp/libg_nano.a(lib_a-memmove.o)
 .bss           0x0000000000000000        0x0 /usr/lib/gcc/arm-none-eabi/8.3.1/../../../arm-none-eabi/lib/thumb/v6-m/nofp/libg_nano.a(lib_a-memmove.o)
 .data          0x0000000000000000        0x0 /usr/lib/gcc/arm-none-eabi/8.3.1/../../../arm-none-eabi/lib/thumb/v6-m/nofp/libg_nano.a(lib_a-memset.o)
 .bss           0x0000000000000000        0x0 /usr/lib/gcc/arm-none-eabi/8.3.1/../../../arm-none-eabi/lib/thumb/v6-m/nofp/libg_nano.a(lib_a-memset.o)
 .data          0x0000000000000000        0x0 /usr/lib/gcc/arm-none-eabi/8.3.1/../../../arm-none-eabi/lib/thumb/v6-m/nofp/libg_nano.a(lib_a-mlock.o)
 .bss           0x0000000000000000        0x0 /usr/lib/gcc/arm-none-eabi/8.3.1/../../../arm-none-eabi/lib/thumb/v6-m/nofp/libg_nano.a(lib_a-mlock.o)
 .data          0x0000000000000000        0x0 /usr/lib/gcc/arm-none-eabi/8.3.1/../../../arm-none-eabi/lib/thumb/v6-m/nofp/libg_nano.a(lib_a-nano-reallocr.o)
 .bss           0x0000000000000000        0x0 /usr/lib/gcc/arm-none-eabi/8.3.1/../../../arm-none-eabi/lib/thumb/v6-m/nofp/libg_nano.a(lib_a-nano-reallocr.o)
 .data          0x0000000000000000        0x0 /usr/lib/gcc/arm-none-eabi/8.3.1/../../../arm-none-eabi/lib/thumb/v6-m/nofp/libg_nano.a(lib_a-signal.o)
 .bss           0x0000000000000000        0x0 /usr/lib/gcc/arm-none-eabi/8.3.1/../../../arm-none-eabi/lib/thumb/v6-m/nofp/libg_nano.a(lib_a-signal.o)
 .data          0x0000000000000000        0x0 /usr/lib/gcc/arm-none-eabi/8.3.1/../../../arm-none-eabi/lib/thumb/v6-m/nofp/libg_nano.a(lib_a-signalr.o)
 .bss           0x0000000000000000        0x0 /usr/lib/gcc/arm-none-eabi/8.3.1/../../../arm-none-eabi/lib/thumb/v6-m/nofp/libg_nano.a(lib_a-signalr.o)
 .data          0x0000000000000000        0x0 /usr/lib/gcc/arm-none-eabi/8.3.1/../../../arm-none-eabi/lib/thumb/v6-m/nofp/libg_nano.a(lib_a-stdio.o)
 .bss           0x0000000000000000        0x0 /usr/lib/gcc/arm-none-eabi/8.3.1/../../../arm-none-eabi/lib/thumb/v6-m/nofp/libg_nano.a(lib_a-stdio.o)
 .data          0x0000000000000000        0x0 /usr/lib/gcc/arm-none-eabi/8.3.1/../../../arm-none-eabi/lib/thumb/v6-m/nofp/libg_nano.a(lib_a-nano-msizer.o)
 .bss           0x0000000000000000        0x0 /usr/lib/gcc/arm-none-eabi/8.3.1/../../../arm-none-eabi/lib/thumb/v6-m/nofp/libg_nano.a(lib_a-nano-msizer.o)
 .text          0x0000000000000000       0xf8 /usr/lib/gcc/arm-none-eabi/8.3.1/../../../arm-none-eabi/lib/thumb/v6-m/nofp/libg_nano.a(lib_a-reent.o)
 .data          0x0000000000000000        0x0 /usr/lib/gcc/arm-none-eabi/8.3.1/../../../arm-none-eabi/lib/thumb/v6-m/nofp/libg_nano.a(lib_a-reent.o)
 .bss           0x0000000000000000        0x0 /usr/lib/gcc/arm-none-eabi/8.3.1/../../../arm-none-eabi/lib/thumb/v6-m/nofp/libg_nano.a(lib_a-reent.o)
 .data          0x0000000000000000        0x0 /usr/lib/gcc/arm-none-eabi/8.3.1/../../../arm-none-eabi/lib/thumb/v6-m/nofp/libg_nano.a(lib_a-memcmp.o)
 .bss           0x0000000000000000        0x0 /usr/lib/gcc/arm-none-eabi/8.3.1/../../../arm-none-eabi/lib/thumb/v6-m/nofp/libg_nano.a(lib_a-memcmp.o)
 .data          0x0000000000000000        0x0 /usr/lib/gcc/arm-none-eabi/8.3.1/../../../arm-none-eabi/lib/thumb/v6-m/nofp/libg_nano.a(lib_a-strlen-stub.o)
 .bss           0x0000000000000000        0x0 /usr/lib/gcc/arm-none-eabi/8.3.1/../../../arm-none-eabi/lib/thumb/v6-m/nofp/libg_nano.a(lib_a-strlen-stub.o)

Memory Configuration

Name             Origin             Length             Attributes
flash0           0x0000000000000000 0x0000000000004000 xr
flash1           0x0000000010000000 0x0000000000200000 xr
flash2           0x0000000000000000 0x0000000000000000 xr
flash3           0x0000000000000000 0x0000000000000000 xr
flash4           0x0000000000000000 0x0000000000000000 xr
flash5           0x0000000000000000 0x0000000000000000 xr
flash6           0x0000000000000000 0x0000000000000000 xr
flash7           0x0000000000000000 0x0000000000000000 xr
ram0             0x0000000020000000 0x0000000000040000 xw
ram1             0x0000000000000000 0x0000000000040000 xw
ram2             0x0000000000000000 0x0000000000000000 xw
ram3             0x0000000000000000 0x0000000000000000 xw
ram4             0x0000000020040000 0x0000000000001000 xw
ram5             0x0000000020041000 0x0000000000001000 xw
ram6             0x0000000000000000 0x0000000000000000 xw
ram7             0x0000000020041f00 0x0000000000000100 xw
*default*        0x0000000000000000 0xffffffffffffffff

Linker script and memory map

LOAD .build/obj_sofle_rev1_EGF2/keyboards/sofle/sofle.o
LOAD /tmp/cc4Fj2P6debugobj
LOAD /tmp/ccxW9Zd7.ltrans0.ltrans.o
LOAD .build/obj_sofle_rev1_EGF2/keyboards/sofle/rev1/rev1.o
LOAD .build/obj_sofle_rev1_EGF2/.build/obj_sofle_rev1/src/default_keyboard.o
LOAD .build/obj_sofle_rev1_EGF2/quantum/keymap_introspection.o
LOAD .build/obj_sofle_rev1_EGF2/quantum/quantum.o
LOAD .build/obj_sofle_rev1_EGF2/quantum/bitwise.o
LOAD .build/obj_sofle_rev1_EGF2/quantum/led.o
LOAD .build/obj_sofle_rev1_EGF2/quantum/action.o
LOAD .build/obj_sofle_rev1_EGF2/quantum/action_layer.o
LOAD .build/obj_sofle_rev1_EGF2/quantum/action_tapping.o
LOAD .build/obj_sofle_rev1_EGF2/quantum/action_util.o
LOAD .build/obj_sofle_rev1_EGF2/quantum/eeconfig.o
LOAD .build/obj_sofle_rev1_EGF2/quantum/keyboard.o
LOAD .build/obj_sofle_rev1_EGF2/quantum/keymap_common.o
LOAD .build/obj_sofle_rev1_EGF2/quantum/keycode_config.o
LOAD .build/obj_sofle_rev1_EGF2/quantum/sync_timer.o
LOAD .build/obj_sofle_rev1_EGF2/quantum/logging/debug.o
LOAD .build/obj_sofle_rev1_EGF2/quantum/logging/sendchar.o
LOAD .build/obj_sofle_rev1_EGF2/quantum/logging/print.o
LOAD .build/obj_sofle_rev1_EGF2/quantum/bootmagic/magic.o
LOAD .build/obj_sofle_rev1_EGF2/quantum/matrix_common.o
LOAD .build/obj_sofle_rev1_EGF2/quantum/matrix.o
LOAD .build/obj_sofle_rev1_EGF2/quantum/debounce/sym_defer_g.o
LOAD .build/obj_sofle_rev1_EGF2/quantum/split_common/split_util.o
LOAD .build/obj_sofle_rev1_EGF2/quantum/split_common/transport.o
LOAD .build/obj_sofle_rev1_EGF2/quantum/split_common/transactions.o
LOAD .build/obj_sofle_rev1_EGF2/quantum/main.o
LOAD .build/obj_sofle_rev1_EGF2/printf.o
LOAD .build/obj_sofle_rev1_EGF2/quantum/mousekey.o
LOAD .build/obj_sofle_rev1_EGF2/eeprom_driver.o
LOAD .build/obj_sofle_rev1_EGF2/eeprom_wear_leveling.o
LOAD .build/obj_sofle_rev1_EGF2/wear_leveling.o
LOAD .build/obj_sofle_rev1_EGF2/wear_leveling_rp2040_flash.o
LOAD .build/obj_sofle_rev1_EGF2/quantum/color.o
LOAD .build/obj_sofle_rev1_EGF2/quantum/rgblight/rgblight.o
LOAD .build/obj_sofle_rev1_EGF2/quantum/process_keycode/process_rgb.o
LOAD .build/obj_sofle_rev1_EGF2/ws2812_vendor.o
LOAD .build/obj_sofle_rev1_EGF2/quantum/led_tables.o
LOAD .build/obj_sofle_rev1_EGF2/crc.o
LOAD .build/obj_sofle_rev1_EGF2/qmk_fnv_type_validation.o
LOAD .build/obj_sofle_rev1_EGF2/hash_32a.o
LOAD .build/obj_sofle_rev1_EGF2/hash_64a.o
LOAD .build/obj_sofle_rev1_EGF2/ssd1306_sh1106.o
LOAD .build/obj_sofle_rev1_EGF2/quantum/process_keycode/process_magic.o
LOAD .build/obj_sofle_rev1_EGF2/quantum/send_string/send_string.o
LOAD .build/obj_sofle_rev1_EGF2/quantum/encoder.o
LOAD .build/obj_sofle_rev1_EGF2/quantum/process_keycode/process_grave_esc.o
LOAD .build/obj_sofle_rev1_EGF2/quantum/process_keycode/process_space_cadet.o
LOAD .build/obj_sofle_rev1_EGF2/quantum/process_keycode/process_tap_dance.o
LOAD .build/obj_sofle_rev1_EGF2/quantum/velocikey.o
LOAD .build/obj_sofle_rev1_EGF2/quantum/wpm.o
LOAD .build/obj_sofle_rev1_EGF2/serial_protocol.a
LOAD .build/obj_sofle_rev1_EGF2/serial_vendor.a
LOAD .build/obj_sofle_rev1_EGF2/i2c_master.a
LOAD .build/obj_sofle_rev1_EGF2/./lib/chibios/os/common/startup/ARMCMx/compilers/GCC/crt0_v6m.o
LOAD .build/obj_sofle_rev1_EGF2/./lib/chibios/os/common/startup/ARMCMx/compilers/GCC/vectors.o
LOAD .build/obj_sofle_rev1_EGF2/./lib/chibios/os/common/ports/ARMv6-M-RP2/compilers/GCC/chcoreasm.o
LOAD .build/obj_sofle_rev1_EGF2/protocol/host.o
LOAD .build/obj_sofle_rev1_EGF2/protocol/report.o
LOAD .build/obj_sofle_rev1_EGF2/protocol/usb_device_state.o
LOAD .build/obj_sofle_rev1_EGF2/protocol/usb_util.o
LOAD .build/obj_sofle_rev1_EGF2/platforms/suspend.o
LOAD .build/obj_sofle_rev1_EGF2/platforms/chibios/hardware_id.o
LOAD .build/obj_sofle_rev1_EGF2/platforms/chibios/platform.o
LOAD .build/obj_sofle_rev1_EGF2/platforms/chibios/suspend.o
LOAD .build/obj_sofle_rev1_EGF2/platforms/chibios/timer.o
LOAD .build/obj_sofle_rev1_EGF2/platforms/chibios/bootloaders/rp2040.o
LOAD .build/obj_sofle_rev1_EGF2/protocol/chibios/usb_main.o
LOAD .build/obj_sofle_rev1_EGF2/protocol/chibios/chibios.o
LOAD .build/obj_sofle_rev1_EGF2/usb_descriptor.o
LOAD .build/obj_sofle_rev1_EGF2/protocol/chibios/usb_driver.o
LOAD .build/obj_sofle_rev1_EGF2/protocol/chibios/usb_util.o
LOAD .build/obj_sofle_rev1_EGF2/./lib/chibios/os/oslib/src/chmboxes.o
LOAD .build/obj_sofle_rev1_EGF2/./lib/chibios/os/oslib/src/chmemcore.o
LOAD .build/obj_sofle_rev1_EGF2/./lib/chibios/os/oslib/src/chmemheaps.o
LOAD .build/obj_sofle_rev1_EGF2/./lib/chibios/os/oslib/src/chmempools.o
LOAD .build/obj_sofle_rev1_EGF2/./lib/chibios/os/oslib/src/chpipes.o
LOAD .build/obj_sofle_rev1_EGF2/./lib/chibios/os/oslib/src/chobjcaches.o
LOAD .build/obj_sofle_rev1_EGF2/./lib/chibios/os/oslib/src/chdelegates.o
LOAD .build/obj_sofle_rev1_EGF2/./lib/chibios/os/oslib/src/chfactory.o
LOAD .build/obj_sofle_rev1/lib/chibios/os/common/startup/ARMCMx/compilers/GCC/crt1.o
LOAD .build/obj_sofle_rev1/lib/chibios/os/rt/src/chsys.o
LOAD .build/obj_sofle_rev1/lib/chibios/os/rt/src/chrfcu.o
LOAD .build/obj_sofle_rev1/lib/chibios/os/rt/src/chdebug.o
LOAD .build/obj_sofle_rev1/lib/chibios/os/rt/src/chtrace.o
LOAD .build/obj_sofle_rev1/lib/chibios/os/rt/src/chvt.o
LOAD .build/obj_sofle_rev1/lib/chibios/os/rt/src/chschd.o
LOAD .build/obj_sofle_rev1/lib/chibios/os/rt/src/chinstances.o
LOAD .build/obj_sofle_rev1/lib/chibios/os/rt/src/chthreads.o
LOAD .build/obj_sofle_rev1/lib/chibios/os/rt/src/chtm.o
LOAD .build/obj_sofle_rev1/lib/chibios/os/rt/src/chstats.o
LOAD .build/obj_sofle_rev1/lib/chibios/os/rt/src/chregistry.o
LOAD .build/obj_sofle_rev1/lib/chibios/os/rt/src/chsem.o
LOAD .build/obj_sofle_rev1/lib/chibios/os/rt/src/chmtx.o
LOAD .build/obj_sofle_rev1/lib/chibios/os/rt/src/chcond.o
LOAD .build/obj_sofle_rev1/lib/chibios/os/rt/src/chevents.o
LOAD .build/obj_sofle_rev1/lib/chibios/os/rt/src/chmsg.o
LOAD .build/obj_sofle_rev1/lib/chibios/os/rt/src/chdynamic.o
LOAD .build/obj_sofle_rev1/lib/chibios/os/common/ports/ARMv6-M-RP2/chcore.o
LOAD .build/obj_sofle_rev1/lib/chibios/os/hal/osal/rt-nil/osal.o
LOAD .build/obj_sofle_rev1/lib/chibios/os/hal/src/hal.o
LOAD .build/obj_sofle_rev1/lib/chibios/os/hal/src/hal_st.o
LOAD .build/obj_sofle_rev1/lib/chibios/os/hal/src/hal_buffers.o
LOAD .build/obj_sofle_rev1/lib/chibios/os/hal/src/hal_queues.o
LOAD .build/obj_sofle_rev1/lib/chibios/os/hal/src/hal_flash.o
LOAD .build/obj_sofle_rev1/lib/chibios/os/hal/src/hal_mmcsd.o
LOAD .build/obj_sofle_rev1/lib/chibios/os/hal/src/hal_adc.o
LOAD .build/obj_sofle_rev1/lib/chibios/os/hal/src/hal_can.o
LOAD .build/obj_sofle_rev1/lib/chibios/os/hal/src/hal_crypto.o
LOAD .build/obj_sofle_rev1/lib/chibios/os/hal/src/hal_dac.o
LOAD .build/obj_sofle_rev1/lib/chibios/os/hal/src/hal_efl.o
LOAD .build/obj_sofle_rev1/lib/chibios/os/hal/src/hal_gpt.o
LOAD .build/obj_sofle_rev1/lib/chibios/os/hal/src/hal_i2c.o
LOAD .build/obj_sofle_rev1/lib/chibios/os/hal/src/hal_i2s.o
LOAD .build/obj_sofle_rev1/lib/chibios/os/hal/src/hal_icu.o
LOAD .build/obj_sofle_rev1/lib/chibios/os/hal/src/hal_mac.o
LOAD .build/obj_sofle_rev1/lib/chibios/os/hal/src/hal_mmc_spi.o
LOAD .build/obj_sofle_rev1/lib/chibios/os/hal/src/hal_pal.o
LOAD .build/obj_sofle_rev1/lib/chibios/os/hal/src/hal_pwm.o
LOAD .build/obj_sofle_rev1/lib/chibios/os/hal/src/hal_rtc.o
LOAD .build/obj_sofle_rev1/lib/chibios/os/hal/src/hal_sdc.o
LOAD .build/obj_sofle_rev1/lib/chibios/os/hal/src/hal_serial.o
LOAD .build/obj_sofle_rev1/lib/chibios/os/hal/src/hal_serial_usb.o
LOAD .build/obj_sofle_rev1/lib/chibios/os/hal/src/hal_sio.o
LOAD .build/obj_sofle_rev1/lib/chibios/os/hal/src/hal_spi.o
LOAD .build/obj_sofle_rev1/lib/chibios/os/hal/src/hal_trng.o
LOAD .build/obj_sofle_rev1/lib/chibios/os/hal/src/hal_uart.o
LOAD .build/obj_sofle_rev1/lib/chibios/os/hal/src/hal_usb.o
LOAD .build/obj_sofle_rev1/lib/chibios/os/hal/src/hal_wdg.o
LOAD .build/obj_sofle_rev1/lib/chibios/os/hal/src/hal_wspi.o
LOAD .build/obj_sofle_rev1/lib/chibios/os/hal/ports/common/ARMCMx/nvic.o
LOAD .build/obj_sofle_rev1/lib/chibios/os/hal/ports/RP/RP2040/rp_isr.o
LOAD .build/obj_sofle_rev1/lib/chibios/os/hal/ports/RP/RP2040/hal_lld.o
LOAD .build/obj_sofle_rev1/lib/chibios/os/hal/ports/RP/LLD/DMAv1/rp_dma.o
LOAD .build/obj_sofle_rev1/lib/chibios/os/hal/ports/RP/LLD/GPIOv1/hal_pal_lld.o
LOAD .build/obj_sofle_rev1/lib/chibios/os/hal/ports/RP/LLD/SPIv1/hal_spi_lld.o
LOAD .build/obj_sofle_rev1/lib/chibios/os/hal/ports/RP/LLD/TIMERv1/hal_st_lld.o
LOAD .build/obj_sofle_rev1/lib/chibios/os/hal/ports/RP/LLD/UARTv1/hal_sio_lld.o
LOAD .build/obj_sofle_rev1/lib/chibios/os/hal/ports/RP/LLD/RTCv1/hal_rtc_lld.o
LOAD .build/obj_sofle_rev1/lib/chibios/os/hal/ports/RP/LLD/WDGv1/hal_wdg_lld.o
LOAD .build/obj_sofle_rev1/lib/chibios-contrib/os/hal/ports/RP/LLD/I2Cv1/hal_i2c_lld.o
LOAD .build/obj_sofle_rev1/lib/chibios-contrib/os/hal/ports/RP/LLD/PWMv1/hal_pwm_lld.o
LOAD .build/obj_sofle_rev1/lib/chibios-contrib/os/hal/ports/RP/LLD/ADCv1/hal_adc_lld.o
LOAD .build/obj_sofle_rev1/lib/chibios-contrib/os/hal/ports/RP/LLD/USBDv1/hal_usb_lld.o
LOAD .build/obj_sofle_rev1/lib/chibios/os/hal/boards/RP_PICO_RP2040/board.o
LOAD .build/obj_sofle_rev1/lib/chibios/os/hal/lib/streams/chprintf.o
LOAD .build/obj_sofle_rev1/lib/chibios/os/hal/lib/streams/chscanf.o
LOAD .build/obj_sofle_rev1/lib/chibios/os/hal/lib/streams/memstreams.o
LOAD .build/obj_sofle_rev1/lib/chibios/os/hal/lib/streams/nullstreams.o
LOAD .build/obj_sofle_rev1/lib/chibios/os/hal/lib/streams/bufstreams.o
LOAD .build/obj_sofle_rev1/lib/chibios/os/various/syscalls.o
LOAD .build/obj_sofle_rev1/platforms/chibios/syscall-fallbacks.o
LOAD .build/obj_sofle_rev1/platforms/chibios/wait.o
LOAD .build/obj_sofle_rev1/platforms/chibios/synchronization_util.o
LOAD .build/obj_sofle_rev1/./lib/pico-sdk/src/rp2_common/hardware_clocks/clocks.o
LOAD .build/obj_sofle_rev1/./lib/pico-sdk/src/rp2_common/hardware_pll/pll.o
LOAD .build/obj_sofle_rev1/./lib/pico-sdk/src/rp2_common/hardware_pio/pio.o
LOAD .build/obj_sofle_rev1/./lib/pico-sdk/src/rp2_common/hardware_flash/flash.o
LOAD .build/obj_sofle_rev1/./lib/pico-sdk/src/rp2_common/hardware_gpio/gpio.o
LOAD .build/obj_sofle_rev1/./lib/pico-sdk/src/rp2_common/hardware_claim/claim.o
LOAD .build/obj_sofle_rev1/./lib/pico-sdk/src/rp2_common/hardware_watchdog/watchdog.o
LOAD .build/obj_sofle_rev1/./lib/pico-sdk/src/rp2_common/hardware_xosc/xosc.o
LOAD .build/obj_sofle_rev1/./lib/pico-sdk/src/rp2_common/pico_bootrom/bootrom.o
LOAD .build/obj_sofle_rev1/platforms/chibios/vendors/RP/stage2_bootloaders.o
LOAD .build/obj_sofle_rev1/platforms/chibios/vendors/RP/pico_sdk_shims.o
LOAD .build/obj_sofle_rev1/./lib/pico-sdk/src/rp2_common/pico_divider/divider.o
LOAD .build/obj_sofle_rev1/./lib/pico-sdk/src/rp2_common/pico_int64_ops/pico_int64_ops_aeabi.o
                0x0000000000000800                __process_stack_size__ = 0x800
                0x0000000000000400                __main_stack_size__ = 0x400
LOAD /usr/lib/gcc/arm-none-eabi/8.3.1/../../../arm-none-eabi/lib/thumb/v6-m/nofp/libm.a
START GROUP
LOAD /usr/lib/gcc/arm-none-eabi/8.3.1/thumb/v6-m/nofp/libgcc.a
LOAD /usr/lib/gcc/arm-none-eabi/8.3.1/../../../arm-none-eabi/lib/thumb/v6-m/nofp/libg_nano.a
LOAD /usr/lib/gcc/arm-none-eabi/8.3.1/../../../arm-none-eabi/lib/thumb/v6-m/nofp/libc_nano.a
END GROUP
START GROUP
LOAD /usr/lib/gcc/arm-none-eabi/8.3.1/thumb/v6-m/nofp/libgcc.a
LOAD /usr/lib/gcc/arm-none-eabi/8.3.1/../../../arm-none-eabi/lib/thumb/v6-m/nofp/libc_nano.a
END GROUP

.flash_begin    0x0000000010000000        0x0
                0x0000000010000000                __flash_binary_start = .

.boot2          0x0000000010000000      0x100
                0x0000000010000000                __boot2_start__ = .
 *(.boot2)
 .boot2         0x0000000010000000      0x100 /tmp/ccxW9Zd7.ltrans0.ltrans.o
                0x0000000010000000                BOOT2_ROM
                0x0000000010000100                __boot2_end__ = .

.mstack         0x0000000020040000      0x400
                0x0000000020040000                . = ALIGN (0x8)
                0x0000000020040000                __main_stack_base__ = .
                0x0000000020040400                . = (. + __main_stack_size__)
 *fill*         0x0000000020040000      0x400 
                0x0000000020040400                . = ALIGN (0x8)
                0x0000000020040400                __main_stack_end__ = .

.pstack         0x0000000020040400      0x800
                0x0000000020040400                . = ALIGN (0x8)
                0x0000000020040400                __process_stack_base__ = .
                0x0000000020040400                __main_thread_stack_base__ = .
                0x0000000020040c00                . = (. + __process_stack_size__)
 *fill*         0x0000000020040400      0x800 
                0x0000000020040c00                . = ALIGN (0x8)
                0x0000000020040c00                __process_stack_end__ = .
                0x0000000020040c00                __main_thread_stack_end__ = .
                0x0000000000000400                __c1_main_stack_size__ = __main_stack_size__
                0x0000000000000800                __c1_process_stack_size__ = __process_stack_size__

.c1_mstack      0x0000000020041000      0x400
                0x0000000020041000                . = ALIGN (0x8)
                0x0000000020041000                __c1_main_stack_base__ = .
                0x0000000020041400                . = (. + __c1_main_stack_size__)
 *fill*         0x0000000020041000      0x400 
                0x0000000020041400                . = ALIGN (0x8)
                0x0000000020041400                __c1_main_stack_end__ = .

.c1_pstack      0x0000000020041400      0x800
                0x0000000020041400                . = ALIGN (0x8)
                0x0000000020041400                __c1_process_stack_base__ = .
                0x0000000020041400                __c1_main_thread_stack_base__ = .
                0x0000000020041c00                . = (. + __c1_process_stack_size__)
 *fill*         0x0000000020041400      0x800 
                0x0000000020041c00                . = ALIGN (0x8)
                0x0000000020041c00                __c1_process_stack_end__ = .
                0x0000000020041c00                __c1_main_thread_stack_end__ = .

.vectors        0x0000000010000100       0xc0
                0x0000000010000100                __textvectors_base__ = LOADADDR (.vectors)
                0x0000000010000100                __vectors_base__ = .
 *(.vectors)
 .vectors       0x0000000010000100       0xc0 .build/obj_sofle_rev1_EGF2/./lib/chibios/os/common/startup/ARMCMx/compilers/GCC/vectors.o
                0x0000000010000100                _vectors
                0x00000000100001c0                __vectors_end__ = .

.xtors          0x00000000100001c0        0x0
                0x00000000100001c0                __init_array_base__ = .
 *(SORT_BY_NAME(.init_array.*))
 *(.init_array)
                0x00000000100001c0                __init_array_end__ = .
                0x00000000100001c0                __fini_array_base__ = .
 *(.fini_array)
 *(SORT_BY_NAME(.fini_array.*))
                0x00000000100001c0                __fini_array_end__ = .

.text           0x00000000100001c0     0xa980
                0x00000000100001c0                __text_base__ = .
 *(.text)
 .text          0x00000000100001c0      0x104 .build/obj_sofle_rev1_EGF2/./lib/chibios/os/common/startup/ARMCMx/compilers/GCC/crt0_v6m.o
                0x00000000100001c0                _crt0_entry
 .text          0x00000000100002c4        0x8 .build/obj_sofle_rev1_EGF2/./lib/chibios/os/common/startup/ARMCMx/compilers/GCC/vectors.o
                0x00000000100002c4                Reset_Handler
                0x00000000100002c6                Vector58
                0x00000000100002c6                Vector9C
                0x00000000100002c6                VectorAC
                0x00000000100002c6                DebugMon_Handler
                0x00000000100002c6                HardFault_Handler
                0x00000000100002c6                Vector8C
                0x00000000100002c6                SysTick_Handler
                0x00000000100002c6                PendSV_Handler
                0x00000000100002c6                Vector94
                0x00000000100002c6                VectorA8
                0x00000000100002c6                VectorB4
                0x00000000100002c6                Vector74
                0x00000000100002c6                UsageFault_Handler
                0x00000000100002c6                VectorBC
                0x00000000100002c6                Vector64
                0x00000000100002c6                Vector98
                0x00000000100002c6                Vector24
                0x00000000100002c6                Vector84
                0x00000000100002c6                SecureFault_Handler
                0x00000000100002c6                MemManage_Handler
                0x00000000100002c6                SVC_Handler
                0x00000000100002c6                VectorB0
                0x00000000100002c6                Vector90
                0x00000000100002c6                Vector60
                0x00000000100002c6                Vector68
                0x00000000100002c6                Vector78
                0x00000000100002c6                Vector88
                0x00000000100002c6                BusFault_Handler
                0x00000000100002c6                Vector50
                0x00000000100002c6                Vector28
                0x00000000100002c6                VectorB8
                0x00000000100002c6                Vector34
                0x00000000100002c6                VectorA4
                0x00000000100002c6                Vector20
                0x00000000100002ca                _unhandled_exception
 .text          0x00000000100002cc       0x48 .build/obj_sofle_rev1_EGF2/./lib/chibios/os/common/ports/ARMv6-M-RP2/compilers/GCC/chcoreasm.o
                0x00000000100002cc                __port_switch
                0x00000000100002ec                __port_thread_start
                0x00000000100002fe                __port_switch_from_isr
                0x0000000010000302                __port_exit_from_isr
 .text          0x0000000010000314        0x4 /usr/lib/gcc/arm-none-eabi/8.3.1/thumb/v6-m/nofp/libgcc.a(_dvmd_tls.o)
                0x0000000010000314                __aeabi_ldiv0
                0x0000000010000314                __aeabi_idiv0
 .text          0x0000000010000318       0x30 /usr/lib/gcc/arm-none-eabi/8.3.1/thumb/v6-m/nofp/libgcc.a(_fixunssfsi.o)
                0x0000000010000318                __aeabi_f2uiz
                0x0000000010000318                __fixunssfsi
 .text          0x0000000010000348      0x230 /usr/lib/gcc/arm-none-eabi/8.3.1/thumb/v6-m/nofp/libgcc.a(divsf3.o)
                0x0000000010000348                __aeabi_fdiv
 .text          0x0000000010000578      0x22c /usr/lib/gcc/arm-none-eabi/8.3.1/thumb/v6-m/nofp/libgcc.a(mulsf3.o)
                0x0000000010000578                __aeabi_fmul
 .text          0x00000000100007a4      0x348 /usr/lib/gcc/arm-none-eabi/8.3.1/thumb/v6-m/nofp/libgcc.a(subsf3.o)
                0x00000000100007a4                __aeabi_fsub
 .text          0x0000000010000aec       0x40 /usr/lib/gcc/arm-none-eabi/8.3.1/thumb/v6-m/nofp/libgcc.a(fixsfsi.o)
                0x0000000010000aec                __aeabi_f2iz
 .text          0x0000000010000b2c       0x80 /usr/lib/gcc/arm-none-eabi/8.3.1/thumb/v6-m/nofp/libgcc.a(floatunsisf.o)
                0x0000000010000b2c                __aeabi_ui2f
 .text          0x0000000010000bac       0x74 /usr/lib/gcc/arm-none-eabi/8.3.1/thumb/v6-m/nofp/libgcc.a(_arm_cmpsf2.o)
                0x0000000010000bac                __aeabi_cfrcmple
                0x0000000010000bb4                __aeabi_cfcmple
                0x0000000010000bb4                __aeabi_cfcmpeq
                0x0000000010000bc4                __aeabi_fcmpeq
                0x0000000010000bd0                __aeabi_fcmplt
                0x0000000010000be4                __aeabi_fcmple
                0x0000000010000bf8                __aeabi_fcmpgt
                0x0000000010000c0c                __aeabi_fcmpge
 .text          0x0000000010000c20       0x3c /usr/lib/gcc/arm-none-eabi/8.3.1/thumb/v6-m/nofp/libgcc.a(_clzsi2.o)
                0x0000000010000c20                __clzsi2
 .text          0x0000000010000c5c       0x50 /usr/lib/gcc/arm-none-eabi/8.3.1/thumb/v6-m/nofp/libgcc.a(eqsf2.o)
                0x0000000010000c5c                __nesf2
                0x0000000010000c5c                __eqsf2
 .text          0x0000000010000cac       0x98 /usr/lib/gcc/arm-none-eabi/8.3.1/thumb/v6-m/nofp/libgcc.a(gesf2.o)
                0x0000000010000cac                __gtsf2
                0x0000000010000cac                __gesf2
 .text          0x0000000010000d44       0x94 /usr/lib/gcc/arm-none-eabi/8.3.1/thumb/v6-m/nofp/libgcc.a(lesf2.o)
                0x0000000010000d44                __lesf2
                0x0000000010000d44                __ltsf2
 .text          0x0000000010000dd8       0x14 /usr/lib/gcc/arm-none-eabi/8.3.1/thumb/v6-m/nofp/libgcc.a(_thumb1_case_uqi.o)
                0x0000000010000dd8                __gnu_thumb1_case_uqi
 .text          0x0000000010000dec       0x14 /usr/lib/gcc/arm-none-eabi/8.3.1/thumb/v6-m/nofp/libgcc.a(_thumb1_case_shi.o)
                0x0000000010000dec                __gnu_thumb1_case_shi
 .text          0x0000000010000e00       0x14 /usr/lib/gcc/arm-none-eabi/8.3.1/thumb/v6-m/nofp/libgcc.a(_thumb1_case_uhi.o)
                0x0000000010000e00                __gnu_thumb1_case_uhi
 .text          0x0000000010000e14       0x40 /usr/lib/gcc/arm-none-eabi/8.3.1/thumb/v6-m/nofp/libgcc.a(_ctzsi2.o)
                0x0000000010000e14                __ctzsi2
 .text          0x0000000010000e54       0x94 /usr/lib/gcc/arm-none-eabi/8.3.1/thumb/v6-m/nofp/libgcc.a(floatsisf.o)
                0x0000000010000e54                __aeabi_i2f
 .text          0x0000000010000ee8       0xa8 /usr/lib/gcc/arm-none-eabi/8.3.1/../../../arm-none-eabi/lib/thumb/v6-m/nofp/libg_nano.a(lib_a-memcpy-stub.o)
                0x0000000010000ee8                memcpy
 .text          0x0000000010000f90       0xe8 /usr/lib/gcc/arm-none-eabi/8.3.1/../../../arm-none-eabi/lib/thumb/v6-m/nofp/libg_nano.a(lib_a-rand.o)
                0x0000000010000f90                srand
                0x0000000010000ff0                rand
 .text          0x0000000010001078       0x4c /usr/lib/gcc/arm-none-eabi/8.3.1/../../../arm-none-eabi/lib/thumb/v6-m/nofp/libg_nano.a(lib_a-assert.o)
                0x0000000010001078                __assert_func
                0x00000000100010b8                __assert
 .text          0x00000000100010c4       0x3c /usr/lib/gcc/arm-none-eabi/8.3.1/../../../arm-none-eabi/lib/thumb/v6-m/nofp/libg_nano.a(lib_a-fprintf.o)
                0x00000000100010c4                _fprintf_r
                0x00000000100010c4                _fiprintf_r
                0x00000000100010dc                fprintf
                0x00000000100010dc                fiprintf
 .text          0x0000000010001100       0x28 /usr/lib/gcc/arm-none-eabi/8.3.1/../../../arm-none-eabi/lib/thumb/v6-m/nofp/libg_nano.a(lib_a-malloc.o)
                0x0000000010001100                malloc
                0x0000000010001114                free
 .text          0x0000000010001128       0xac /usr/lib/gcc/arm-none-eabi/8.3.1/../../../arm-none-eabi/lib/thumb/v6-m/nofp/libg_nano.a(lib_a-nano-freer.o)
                0x0000000010001128                _free_r
 .text          0x00000000100011d4       0xcc /usr/lib/gcc/arm-none-eabi/8.3.1/../../../arm-none-eabi/lib/thumb/v6-m/nofp/libg_nano.a(lib_a-nano-mallocr.o)
                0x00000000100011d4                _malloc_r
 .text          0x00000000100012a0      0x384 /usr/lib/gcc/arm-none-eabi/8.3.1/../../../arm-none-eabi/lib/thumb/v6-m/nofp/libg_nano.a(lib_a-nano-vfprintf.o)
                0x00000000100012c8                __sfputs_r
                0x00000000100012f4                __sprint_r
                0x0000000010001310                _vfiprintf_r
                0x0000000010001310                _vfprintf_r
                0x000000001000160c                vfiprintf
                0x000000001000160c                vfprintf
 .text          0x0000000010001624      0x3d8 /usr/lib/gcc/arm-none-eabi/8.3.1/../../../arm-none-eabi/lib/thumb/v6-m/nofp/libg_nano.a(lib_a-nano-vfprintf_i.o)
                0x0000000010001624                _printf_common
                0x0000000010001754                _printf_i
 .text          0x00000000100019fc       0xec /usr/lib/gcc/arm-none-eabi/8.3.1/../../../arm-none-eabi/lib/thumb/v6-m/nofp/libg_nano.a(lib_a-wbuf.o)
                0x00000000100019fc                __swbuf_r
                0x0000000010001ad0                __swbuf
 .text          0x0000000010001ae8      0x10c /usr/lib/gcc/arm-none-eabi/8.3.1/../../../arm-none-eabi/lib/thumb/v6-m/nofp/libg_nano.a(lib_a-wsetup.o)
                0x0000000010001ae8                __swsetup_r
 .text          0x0000000010001bf4       0x10 /usr/lib/gcc/arm-none-eabi/8.3.1/../../../arm-none-eabi/lib/thumb/v6-m/nofp/libg_nano.a(lib_a-abort.o)
                0x0000000010001bf4                abort
 .text          0x0000000010001c04      0x1b8 /usr/lib/gcc/arm-none-eabi/8.3.1/../../../arm-none-eabi/lib/thumb/v6-m/nofp/libg_nano.a(lib_a-fflush.o)
                0x0000000010001c04                __sflush_r
                0x0000000010001d38                _fflush_r
                0x0000000010001d94                fflush
 .text          0x0000000010001dbc      0x240 /usr/lib/gcc/arm-none-eabi/8.3.1/../../../arm-none-eabi/lib/thumb/v6-m/nofp/libg_nano.a(lib_a-findfp.o)
                0x0000000010001dc0                _cleanup_r
                0x0000000010001dd4                __sfmoreglue
                0x0000000010001e04                __sfp
                0x0000000010001f94                _cleanup
                0x0000000010001fac                __sinit
                0x0000000010001fbc                __sfp_lock_acquire
                0x0000000010001fc0                __sfp_lock_release
                0x0000000010001fc4                __sinit_lock_acquire
                0x0000000010001fc8                __sinit_lock_release
                0x0000000010001fcc                __fp_lock_all
                0x0000000010001fe4                __fp_unlock_all
 .text          0x0000000010001ffc      0x320 /usr/lib/gcc/arm-none-eabi/8.3.1/../../../arm-none-eabi/lib/thumb/v6-m/nofp/libg_nano.a(lib_a-fvwrite.o)
                0x0000000010001ffc                __sfvwrite_r
 .text          0x000000001000231c       0x90 /usr/lib/gcc/arm-none-eabi/8.3.1/../../../arm-none-eabi/lib/thumb/v6-m/nofp/libg_nano.a(lib_a-fwalk.o)
                0x000000001000231c                _fwalk
                0x0000000010002360                _fwalk_reent
 .text          0x00000000100023ac       0xe0 /usr/lib/gcc/arm-none-eabi/8.3.1/../../../arm-none-eabi/lib/thumb/v6-m/nofp/libg_nano.a(lib_a-makebuf.o)
                0x00000000100023ac                __swhatbuf_r
                0x00000000100023fc                __smakebuf_r
 .text          0x000000001000248c       0x80 /usr/lib/gcc/arm-none-eabi/8.3.1/../../../arm-none-eabi/lib/thumb/v6-m/nofp/libg_nano.a(lib_a-memchr-stub.o)
                0x000000001000248c                memchr
 .text          0x000000001000250c       0xbc /usr/lib/gcc/arm-none-eabi/8.3.1/../../../arm-none-eabi/lib/thumb/v6-m/nofp/libg_nano.a(lib_a-memmove.o)
                0x000000001000250c                memmove
 .text          0x00000000100025c8       0xa8 /usr/lib/gcc/arm-none-eabi/8.3.1/../../../arm-none-eabi/lib/thumb/v6-m/nofp/libg_nano.a(lib_a-memset.o)
                0x00000000100025c8                memset
 .text          0x0000000010002670        0x8 /usr/lib/gcc/arm-none-eabi/8.3.1/../../../arm-none-eabi/lib/thumb/v6-m/nofp/libg_nano.a(lib_a-mlock.o)
                0x0000000010002670                __malloc_lock
                0x0000000010002674                __malloc_unlock
 .text          0x0000000010002678       0x50 /usr/lib/gcc/arm-none-eabi/8.3.1/../../../arm-none-eabi/lib/thumb/v6-m/nofp/libg_nano.a(lib_a-nano-reallocr.o)
                0x0000000010002678                _realloc_r
 .text          0x00000000100026c8      0x178 /usr/lib/gcc/arm-none-eabi/8.3.1/../../../arm-none-eabi/lib/thumb/v6-m/nofp/libg_nano.a(lib_a-signal.o)
                0x00000000100026f0                _init_signal_r
                0x0000000010002708                _signal_r
                0x0000000010002740                _raise_r
                0x0000000010002798                __sigtramp_r
                0x00000000100027e4                raise
                0x00000000100027f8                signal
                0x0000000010002810                _init_signal
                0x000000001000282c                __sigtramp
 .text          0x0000000010002840       0x30 /usr/lib/gcc/arm-none-eabi/8.3.1/../../../arm-none-eabi/lib/thumb/v6-m/nofp/libg_nano.a(lib_a-signalr.o)
                0x0000000010002840                _kill_r
                0x0000000010002868                _getpid_r
 .text          0x0000000010002870       0xa4 /usr/lib/gcc/arm-none-eabi/8.3.1/../../../arm-none-eabi/lib/thumb/v6-m/nofp/libg_nano.a(lib_a-stdio.o)
                0x0000000010002870                __sread
                0x0000000010002898                __seofread
                0x000000001000289c                __swrite
                0x00000000100028dc                __sseek
                0x0000000010002908                __sclose
 .text          0x0000000010002914       0x14 /usr/lib/gcc/arm-none-eabi/8.3.1/../../../arm-none-eabi/lib/thumb/v6-m/nofp/libg_nano.a(lib_a-nano-msizer.o)
                0x0000000010002914                _malloc_usable_size_r
 .text          0x0000000010002928       0x50 /usr/lib/gcc/arm-none-eabi/8.3.1/../../../arm-none-eabi/lib/thumb/v6-m/nofp/libg_nano.a(lib_a-memcmp.o)
                0x0000000010002928                memcmp
 .text          0x0000000010002978       0x68 /usr/lib/gcc/arm-none-eabi/8.3.1/../../../arm-none-eabi/lib/thumb/v6-m/nofp/libg_nano.a(lib_a-strlen-stub.o)
                0x0000000010002978                strlen
 *(.text.*)
 .text.read_source_layers_cache_impl.constprop.89
                0x00000000100029e0       0x2c /tmp/ccxW9Zd7.ltrans0.ltrans.o
 .text.update_source_layers_cache_impl.constprop.88
                0x0000000010002a0c       0x38 /tmp/ccxW9Zd7.ltrans0.ltrans.o
 .text.clock_configure.part.0.constprop.33
                0x0000000010002a44       0xc4 /tmp/ccxW9Zd7.ltrans0.ltrans.o
 .text.clocks_init
                0x0000000010002b08      0x198 /tmp/ccxW9Zd7.ltrans0.ltrans.o
 .text.usb_lld_stall_in
                0x0000000010002ca0       0x40 /tmp/ccxW9Zd7.ltrans0.ltrans.o
 .text.usb_lld_stall_out
                0x0000000010002ce0       0x40 /tmp/ccxW9Zd7.ltrans0.ltrans.o
 .text.usb_prepare_out_ep
                0x0000000010002d20       0x90 /tmp/ccxW9Zd7.ltrans0.ltrans.o
 .text.usbStartReceiveI.constprop.9
                0x0000000010002db0       0x36 /tmp/ccxW9Zd7.ltrans0.ltrans.o
 *fill*         0x0000000010002de6        0x2 
 .text.usb_isochronous_buffer_size
                0x0000000010002de8       0x44 /tmp/ccxW9Zd7.ltrans0.ltrans.o
 .text.usb_lld_init_endpoint
                0x0000000010002e2c      0x13c /tmp/ccxW9Zd7.ltrans0.ltrans.o
 .text.usb_lld_reset.constprop.52
                0x0000000010002f68       0x54 /tmp/ccxW9Zd7.ltrans0.ltrans.o
 .text.hal_lld_peripheral_unreset.lto_priv.122
                0x0000000010002fbc       0x14 /tmp/ccxW9Zd7.ltrans0.ltrans.o
 .text.port_unlock.lto_priv.128
                0x0000000010002fd0       0x12 /tmp/ccxW9Zd7.ltrans0.ltrans.o
 .text.port_lock.lto_priv.146
                0x0000000010002fe2       0x16 /tmp/ccxW9Zd7.ltrans0.ltrans.o
 .text.i2c_lld_disableS
                0x0000000010002ff8       0x64 /tmp/ccxW9Zd7.ltrans0.ltrans.o
 .text.serve_interrupt
                0x000000001000305c       0x28 /tmp/ccxW9Zd7.ltrans0.ltrans.o
 .text.set_address
                0x0000000010003084       0x30 /tmp/ccxW9Zd7.ltrans0.ltrans.o
 .text.ch_sch_prio_insert
                0x00000000100030b4       0x1e /tmp/ccxW9Zd7.ltrans0.ltrans.o
 .text.__idle_thread
                0x00000000100030d2        0x2 /tmp/ccxW9Zd7.ltrans0.ltrans.o
 .text.__sch_ready_ahead
                0x00000000100030d4       0x1c /tmp/ccxW9Zd7.ltrans0.ltrans.o
 .text.__sch_ready_behind
                0x00000000100030f0       0x1c /tmp/ccxW9Zd7.ltrans0.ltrans.o
 .text.__sch_wakeup
                0x000000001000310c       0x42 /tmp/ccxW9Zd7.ltrans0.ltrans.o
 *fill*         0x000000001000314e        0x2 
 .text.chSchReadyI
                0x0000000010003150       0x2c /tmp/ccxW9Zd7.ltrans0.ltrans.o
 .text.vt_insert_first
                0x000000001000317c       0x78 /tmp/ccxW9Zd7.ltrans0.ltrans.o
 .text.vt_set_alarm
                0x00000000100031f4       0x4c /tmp/ccxW9Zd7.ltrans0.ltrans.o
 .text.chVTDoResetI
                0x0000000010003240       0x80 /tmp/ccxW9Zd7.ltrans0.ltrans.o
 .text.ch_dlist_insert
                0x00000000100032c0       0x2a /tmp/ccxW9Zd7.ltrans0.ltrans.o
 *fill*         0x00000000100032ea        0x2 
 .text.chVTDoTickI
                0x00000000100032ec       0xcc /tmp/ccxW9Zd7.ltrans0.ltrans.o
 .text.vt_enqueue
                0x00000000100033b8       0x44 /tmp/ccxW9Zd7.ltrans0.ltrans.o
 .text.chVTSetI.constprop.16
                0x00000000100033fc       0x44 /tmp/ccxW9Zd7.ltrans0.ltrans.o
 .text.chSysHalt
                0x0000000010003440       0x24 /tmp/ccxW9Zd7.ltrans0.ltrans.o
 .text.keyboard_leds
                0x0000000010003464        0xc /tmp/ccxW9Zd7.ltrans0.ltrans.o
 .text.usb_sof_cb
                0x0000000010003470        0xc /tmp/ccxW9Zd7.ltrans0.ltrans.o
 .text.usb_request_hook_cb
                0x000000001000347c      0x180 /tmp/ccxW9Zd7.ltrans0.ltrans.o
 .text.set_led_transfer_cb
                0x00000000100035fc       0x2c /tmp/ccxW9Zd7.ltrans0.ltrans.o
 .text.usb_event_queue_enqueue
                0x0000000010003628       0x30 /tmp/ccxW9Zd7.ltrans0.ltrans.o
 .text.dummy_usb_cb
                0x0000000010003658        0x2 /tmp/ccxW9Zd7.ltrans0.ltrans.o
 *fill*         0x000000001000365a        0x2 
 .text.usb_get_descriptor_cb
                0x000000001000365c       0x98 /tmp/ccxW9Zd7.ltrans0.ltrans.o
 .text.timer_read32
                0x00000000100036f4       0x7c /tmp/ccxW9Zd7.ltrans0.ltrans.o
 .text.add_key_byte
                0x0000000010003770       0x2c /tmp/ccxW9Zd7.ltrans0.ltrans.o
 .text.host_consumer_send
                0x000000001000379c       0x34 /tmp/ccxW9Zd7.ltrans0.ltrans.o
 .text.host_system_send
                0x00000000100037d0       0x34 /tmp/ccxW9Zd7.ltrans0.ltrans.o
 .text.crc8     0x0000000010003804       0x2c /tmp/ccxW9Zd7.ltrans0.ltrans.o
 .text.ws2812_dma_callback
                0x0000000010003830       0x6c /tmp/ccxW9Zd7.ltrans0.ltrans.o
 .text.handleKeycodeRGB
                0x000000001000389c        0xe /tmp/ccxW9Zd7.ltrans0.ltrans.o
 .text.rgblight_effect_dummy
                0x00000000100038aa        0x2 /tmp/ccxW9Zd7.ltrans0.ltrans.o
 .text.rgblight_timer_init
                0x00000000100038ac       0x14 /tmp/ccxW9Zd7.ltrans0.ltrans.o
 .text.rgblight_set_layer_state
                0x00000000100038c0       0x34 /tmp/ccxW9Zd7.ltrans0.ltrans.o
 .text.rgblight_check_config
                0x00000000100038f4       0x30 /tmp/ccxW9Zd7.ltrans0.ltrans.o
 .text.sethsv_raw
                0x0000000010003924       0xa0 /tmp/ccxW9Zd7.ltrans0.ltrans.o
 .text.sethsv   0x00000000100039c4       0x12 /tmp/ccxW9Zd7.ltrans0.ltrans.o
 *fill*         0x00000000100039d6        0x2 
 .text.backing_store_read_bulk
                0x00000000100039d8       0x20 /tmp/ccxW9Zd7.ltrans0.ltrans.o
 .text.backing_store_erase
                0x00000000100039f8       0x20 /tmp/ccxW9Zd7.ltrans0.ltrans.o
 .text.wear_leveling_lock
                0x0000000010003a18       0x1c /tmp/ccxW9Zd7.ltrans0.ltrans.o
 .text.wear_leveling_unlock
                0x0000000010003a34       0x1c /tmp/ccxW9Zd7.ltrans0.ltrans.o
 .text.wear_leveling_write_consolidated
                0x0000000010003a50       0xf4 /tmp/ccxW9Zd7.ltrans0.ltrans.o
 .text.wear_leveling_consolidate_if_needed
                0x0000000010003b44       0x34 /tmp/ccxW9Zd7.ltrans0.ltrans.o
 .text.wear_leveling_append_raw
                0x0000000010003b78       0x40 /tmp/ccxW9Zd7.ltrans0.ltrans.o
 .text.mousekey_send
                0x0000000010003bb8       0x44 /tmp/ccxW9Zd7.ltrans0.ltrans.o
 .text.mousekey_off
                0x0000000010003bfc       0xf0 /tmp/ccxW9Zd7.ltrans0.ltrans.o
 .text.wheel_unit
                0x0000000010003cec       0x4c /tmp/ccxW9Zd7.ltrans0.ltrans.o
 .text.move_unit
                0x0000000010003d38       0x40 /tmp/ccxW9Zd7.ltrans0.ltrans.o
 .text.mousekey_on
                0x0000000010003d78       0xb4 /tmp/ccxW9Zd7.ltrans0.ltrans.o
 .text.sendchar
                0x0000000010003e2c        0x4 /tmp/ccxW9Zd7.ltrans0.ltrans.o
 .text.setPinInputHigh_atomic
                0x0000000010003e30       0x34 /tmp/ccxW9Zd7.ltrans0.ltrans.o
 .text.null_sendchar_func
                0x0000000010003e64        0x4 /tmp/ccxW9Zd7.ltrans0.ltrans.o
 .text.mod_config
                0x0000000010003e68       0xa8 /tmp/ccxW9Zd7.ltrans0.ltrans.o
 .text.keymap_key_to_keycode
                0x0000000010003f10       0x34 /tmp/ccxW9Zd7.ltrans0.ltrans.o
 .text.action_for_keycode
                0x0000000010003f44      0x2d8 /tmp/ccxW9Zd7.ltrans0.ltrans.o
 .text.clear_oneshot_mods
                0x000000001000421c       0x14 /tmp/ccxW9Zd7.ltrans0.ltrans.o
 .text.del_weak_mods
                0x0000000010004230       0x10 /tmp/ccxW9Zd7.ltrans0.ltrans.o
 .text.del_mods
                0x0000000010004240       0x10 /tmp/ccxW9Zd7.ltrans0.ltrans.o
 .text.debug_waiting_buffer
                0x0000000010004250       0x20 /tmp/ccxW9Zd7.ltrans0.ltrans.o
 .text.layer_switch_get_layer
                0x0000000010004270       0x50 /tmp/ccxW9Zd7.ltrans0.ltrans.o
 .text.layer_switch_get_action
                0x00000000100042c0       0x20 /tmp/ccxW9Zd7.ltrans0.ltrans.o
 .text.is_tap_record
                0x00000000100042e0       0x70 /tmp/ccxW9Zd7.ltrans0.ltrans.o
 .text.get_event_keycode
                0x0000000010004350       0x50 /tmp/ccxW9Zd7.ltrans0.ltrans.o
 .text.extract_mod_bits
                0x00000000100043a0       0x64 /tmp/ccxW9Zd7.ltrans0.ltrans.o
 .text.layer_state_set_user
                0x0000000010004404       0x74 /tmp/ccxW9Zd7.ltrans0.ltrans.o
 .text.layer_state_set
                0x0000000010004478       0x10 /tmp/ccxW9Zd7.ltrans0.ltrans.o
 .text.layer_off
                0x0000000010004488       0x18 /tmp/ccxW9Zd7.ltrans0.ltrans.o
 .text.clear_oneshot_layer_state
                0x00000000100044a0       0x38 /tmp/ccxW9Zd7.ltrans0.ltrans.o
 .text.layer_on
                0x00000000100044d8       0x18 /tmp/ccxW9Zd7.ltrans0.ltrans.o
 .text.usbInitEndpointI
                0x00000000100044f0       0x36 /tmp/ccxW9Zd7.ltrans0.ltrans.o
 *fill*         0x0000000010004526        0x2 
 .text.usb_event_cb
                0x0000000010004528       0x58 /tmp/ccxW9Zd7.ltrans0.ltrans.o
 .text.wear_leveling_clear_cache
                0x0000000010004580       0x20 /tmp/ccxW9Zd7.ltrans0.ltrans.o
 .text.wear_leveling_erase
                0x00000000100045a0       0x2e /tmp/ccxW9Zd7.ltrans0.ltrans.o
 .text.usb_prepare_in_ep_buffer
                0x00000000100045ce       0x74 /tmp/ccxW9Zd7.ltrans0.ltrans.o
 *fill*         0x0000000010004642        0x2 
 .text.usb_prepare_in_ep
                0x0000000010004644       0x8c /tmp/ccxW9Zd7.ltrans0.ltrans.o
 .text.usbStartTransmitI
                0x00000000100046d0       0x28 /tmp/ccxW9Zd7.ltrans0.ltrans.o
 .text._usb_ep0out
                0x00000000100046f8       0x80 /tmp/ccxW9Zd7.ltrans0.ltrans.o
 .text._usb_ep0in
                0x0000000010004778       0xae /tmp/ccxW9Zd7.ltrans0.ltrans.o
 *fill*         0x0000000010004826        0x2 
 .text.keyboard_idle_timer_cb
                0x0000000010004828       0x74 /tmp/ccxW9Zd7.ltrans0.ltrans.o
 .text.wear_leveling_read
                0x000000001000489c       0x24 /tmp/ccxW9Zd7.ltrans0.ltrans.o
 .text.eeprom_read_byte
                0x00000000100048c0       0x16 /tmp/ccxW9Zd7.ltrans0.ltrans.o
 .text.velocikey_enabled
                0x00000000100048d6       0x12 /tmp/ccxW9Zd7.ltrans0.ltrans.o
 .text.get_interval_time
                0x00000000100048e8       0x70 /tmp/ccxW9Zd7.ltrans0.ltrans.o
 .text.oled_write_char.constprop.119
                0x0000000010004958       0xb8 /tmp/ccxW9Zd7.ltrans0.ltrans.o
 .text.oled_advance_page
                0x0000000010004a10       0x68 /tmp/ccxW9Zd7.ltrans0.ltrans.o
 .text.wear_leveling_write
                0x0000000010004a78      0x1a0 /tmp/ccxW9Zd7.ltrans0.ltrans.o
 .text.eeprom_update_dword
                0x0000000010004c18       0x26 /tmp/ccxW9Zd7.ltrans0.ltrans.o
 .text.eeconfig_update_rgblight
                0x0000000010004c3e       0x12 /tmp/ccxW9Zd7.ltrans0.ltrans.o
 .text.rgblight_decrease_speed
                0x0000000010004c50       0x1c /tmp/ccxW9Zd7.ltrans0.ltrans.o
 .text.rgblight_increase_speed
                0x0000000010004c6c       0x1c /tmp/ccxW9Zd7.ltrans0.ltrans.o
 .text.eeconfig_update_rgblight_default
                0x0000000010004c88       0x28 /tmp/ccxW9Zd7.ltrans0.ltrans.o
 .text.eeprom_update_word
                0x0000000010004cb0       0x2a /tmp/ccxW9Zd7.ltrans0.ltrans.o
 *fill*         0x0000000010004cda        0x2 
 .text.oneshot_set
                0x0000000010004cdc       0x30 /tmp/ccxW9Zd7.ltrans0.ltrans.o
 .text.eeprom_update_byte
                0x0000000010004d0c       0x1e /tmp/ccxW9Zd7.ltrans0.ltrans.o
 *fill*         0x0000000010004d2a        0x2 
 .text.eeconfig_init_quantum
                0x0000000010004d2c       0x90 /tmp/ccxW9Zd7.ltrans0.ltrans.o
 .text.send_keyboard_report
                0x0000000010004dbc       0x7c /tmp/ccxW9Zd7.ltrans0.ltrans.o
 .text.process_tap_dance_action_on_reset
                0x0000000010004e38       0x2a /tmp/ccxW9Zd7.ltrans0.ltrans.o
 *fill*         0x0000000010004e62        0x2 
 .text.process_tap_dance_action_on_dance_finished
                0x0000000010004e64       0x54 /tmp/ccxW9Zd7.ltrans0.ltrans.o
 .text.clear_keyboard
                0x0000000010004eb8       0x64 /tmp/ccxW9Zd7.ltrans0.ltrans.o
 .text.unregister_mods
                0x0000000010004f1c       0x10 /tmp/ccxW9Zd7.ltrans0.ltrans.o
 .text.register_mods
                0x0000000010004f2c       0x18 /tmp/ccxW9Zd7.ltrans0.ltrans.o
 .text.unregister_code
                0x0000000010004f44       0x84 /tmp/ccxW9Zd7.ltrans0.ltrans.o
 .text.register_code
                0x0000000010004fc8       0xb8 /tmp/ccxW9Zd7.ltrans0.ltrans.o
 .text.unregister_code16
                0x0000000010005080       0x30 /tmp/ccxW9Zd7.ltrans0.ltrans.o
 .text.register_code16
                0x00000000100050b0       0x38 /tmp/ccxW9Zd7.ltrans0.ltrans.o
 .text.qk_tap_dance_pair_finished
                0x00000000100050e8        0xa /tmp/ccxW9Zd7.ltrans0.ltrans.o
 .text.qk_tap_dance_pair_on_each_tap
                0x00000000100050f2       0x18 /tmp/ccxW9Zd7.ltrans0.ltrans.o
 .text.oled_write.constprop.118
                0x000000001000510a       0x1a /tmp/ccxW9Zd7.ltrans0.ltrans.o
 .text.oled_write_ln.constprop.115
                0x0000000010005124        0xe /tmp/ccxW9Zd7.ltrans0.ltrans.o
 *fill*         0x0000000010005132        0x2 
 .text.chSchGoSleepS
                0x0000000010005134       0x2c /tmp/ccxW9Zd7.ltrans0.ltrans.o
 .text.chSchGoSleepTimeoutS
                0x0000000010005160       0x60 /tmp/ccxW9Zd7.ltrans0.ltrans.o
 .text.oled_off
                0x00000000100051c0       0x40 /tmp/ccxW9Zd7.ltrans0.ltrans.o
 .text.oled_on  0x0000000010005200       0x50 /tmp/ccxW9Zd7.ltrans0.ltrans.o
 .text.transport_execute_transaction
                0x0000000010005250       0x6c /tmp/ccxW9Zd7.ltrans0.ltrans.o
 .text.rgblight_handlers_master
                0x00000000100052bc       0x60 /tmp/ccxW9Zd7.ltrans0.ltrans.o
 .text.read_if_checksum_mismatch
                0x000000001000531c       0x7c /tmp/ccxW9Zd7.ltrans0.ltrans.o
 .text.slave_matrix_handlers_master
                0x0000000010005398       0x48 /tmp/ccxW9Zd7.ltrans0.ltrans.o
 .text.gpio_set_drive_strength
                0x00000000100053e0       0x20 /tmp/ccxW9Zd7.ltrans0.ltrans.o
                0x00000000100053e0                gpio_set_drive_strength
 .text.pio_sm_init
                0x0000000010005400       0x88 /tmp/ccxW9Zd7.ltrans0.ltrans.o
                0x0000000010005400                pio_sm_init
 .text.pio_sm_set_consecutive_pindirs
                0x0000000010005488       0x68 /tmp/ccxW9Zd7.ltrans0.ltrans.o
                0x0000000010005488                pio_sm_set_consecutive_pindirs
 .text.pio_sm_set_pins_with_mask
                0x00000000100054f0       0x5a /tmp/ccxW9Zd7.ltrans0.ltrans.o
                0x00000000100054f0                pio_sm_set_pins_with_mask
 *fill*         0x000000001000554a        0x2 
 .text.pio_add_program
                0x000000001000554c       0xd8 /tmp/ccxW9Zd7.ltrans0.ltrans.o
                0x000000001000554c                pio_add_program
 .text.pio_claim_unused_sm
                0x0000000010005624       0x84 /tmp/ccxW9Zd7.ltrans0.ltrans.o
                0x0000000010005624                pio_claim_unused_sm
 .text.clock_get_hz
                0x00000000100056a8        0xc /tmp/ccxW9Zd7.ltrans0.ltrans.o
                0x00000000100056a8                clock_get_hz
 .text.split_shared_memory_lock
                0x00000000100056b4       0x80 /tmp/ccxW9Zd7.ltrans0.ltrans.o
                0x00000000100056b4                split_shared_memory_lock
 .text._fini    0x0000000010005734        0x2 /tmp/ccxW9Zd7.ltrans0.ltrans.o
                0x0000000010005734                _fini
 .text.shutdown_user
                0x0000000010005736        0x2 /tmp/ccxW9Zd7.ltrans0.ltrans.o
                0x0000000010005736                __cpu_init
 .text._getpid  0x0000000010005738        0x4 /tmp/ccxW9Zd7.ltrans0.ltrans.o
                0x0000000010005738                _getpid
 .text._kill    0x000000001000573c        0xc /tmp/ccxW9Zd7.ltrans0.ltrans.o
                0x000000001000573c                _kill
 .text._exit    0x0000000010005748        0xc /tmp/ccxW9Zd7.ltrans0.ltrans.o
                0x0000000010005748                _exit
 .text._isatty_r
                0x0000000010005754        0x4 /tmp/ccxW9Zd7.ltrans0.ltrans.o
                0x0000000010005754                _isatty_r
 .text._fstat_r
                0x0000000010005758       0x18 /tmp/ccxW9Zd7.ltrans0.ltrans.o
                0x0000000010005758                _fstat_r
 .text._sbrk_r  0x0000000010005770       0x3c /tmp/ccxW9Zd7.ltrans0.ltrans.o
                0x0000000010005770                _sbrk_r
 .text._close_r
                0x00000000100057ac        0x4 /tmp/ccxW9Zd7.ltrans0.ltrans.o
                0x00000000100057ac                _close_r
 .text._write_r
                0x00000000100057b0        0x4 /tmp/ccxW9Zd7.ltrans0.ltrans.o
                0x00000000100057b0                _write_r
 .text._lseek_r
                0x00000000100057b4        0x4 /tmp/ccxW9Zd7.ltrans0.ltrans.o
                0x00000000100057b4                _lseek_r
 .text._read_r  0x00000000100057b8        0xa /tmp/ccxW9Zd7.ltrans0.ltrans.o
                0x00000000100057b8                _read_r
 *fill*         0x00000000100057c2        0x2 
 .text.nvicEnableVector
                0x00000000100057c4       0x40 /tmp/ccxW9Zd7.ltrans0.ltrans.o
                0x00000000100057c4                nvicEnableVector
 .text.usb_lld_start.part.3
                0x0000000010005804       0x6c /tmp/ccxW9Zd7.ltrans0.ltrans.o
 .text.i2cStop  0x0000000010005870       0xc4 /tmp/ccxW9Zd7.ltrans0.ltrans.o
                0x0000000010005870                i2cStop
 .text.i2cStart
                0x0000000010005934      0x110 /tmp/ccxW9Zd7.ltrans0.ltrans.o
                0x0000000010005934                i2cStart
 .text.__port_spinlock_release
                0x0000000010005a44       0x10 /tmp/ccxW9Zd7.ltrans0.ltrans.o
                0x0000000010005a44                __port_spinlock_release
 .text.__port_irq_epilogue
                0x0000000010005a54       0x4c /tmp/ccxW9Zd7.ltrans0.ltrans.o
                0x0000000010005a54                __port_irq_epilogue
 .text.Vector4C
                0x0000000010005aa0       0x28 /tmp/ccxW9Zd7.ltrans0.ltrans.o
                0x0000000010005aa0                Vector4C
 .text.Vector48
                0x0000000010005ac8       0x28 /tmp/ccxW9Zd7.ltrans0.ltrans.o
                0x0000000010005ac8                Vector48
 .text.Vector44
                0x0000000010005af0       0x24 /tmp/ccxW9Zd7.ltrans0.ltrans.o
                0x0000000010005af0                Vector44
 .text.Vector40
                0x0000000010005b14       0x24 /tmp/ccxW9Zd7.ltrans0.ltrans.o
                0x0000000010005b14                Vector40
 .text.Vector70
                0x0000000010005b38       0x34 /tmp/ccxW9Zd7.ltrans0.ltrans.o
                0x0000000010005b38                Vector70
 .text.Vector6C
                0x0000000010005b6c       0x34 /tmp/ccxW9Zd7.ltrans0.ltrans.o
                0x0000000010005b6c                Vector6C
 .text.Vector80
                0x0000000010005ba0       0x3c /tmp/ccxW9Zd7.ltrans0.ltrans.o
                0x0000000010005ba0                Vector80
 .text.Vector7C
                0x0000000010005bdc       0x20 /tmp/ccxW9Zd7.ltrans0.ltrans.o
                0x0000000010005bdc                Vector7C
 .text.NMI_Handler
                0x0000000010005bfc       0x12 /tmp/ccxW9Zd7.ltrans0.ltrans.o
                0x0000000010005bfc                NMI_Handler
 .text.chThdResumeI
                0x0000000010005c0e       0x16 /tmp/ccxW9Zd7.ltrans0.ltrans.o
                0x0000000010005c0e                chThdResumeI
 .text.Vector54
                0x0000000010005c24      0x2a8 /tmp/ccxW9Zd7.ltrans0.ltrans.o
                0x0000000010005c24                Vector54
 .text.VectorA0
                0x0000000010005ecc      0x15c /tmp/ccxW9Zd7.ltrans0.ltrans.o
                0x0000000010005ecc                VectorA0
 .text._usb_ep0setup
                0x0000000010006028      0x3b8 /tmp/ccxW9Zd7.ltrans0.ltrans.o
 .text.chThdSuspendTimeoutS
                0x00000000100063e0       0x2c /tmp/ccxW9Zd7.ltrans0.ltrans.o
                0x00000000100063e0                chThdSuspendTimeoutS
 .text.i2cMasterTransmitTimeout
                0x000000001000640c       0xbc /tmp/ccxW9Zd7.ltrans0.ltrans.o
                0x000000001000640c                i2cMasterTransmitTimeout
 .text.send_extra
                0x00000000100064c8       0x44 /tmp/ccxW9Zd7.ltrans0.ltrans.o
 .text.send_mouse
                0x000000001000650c       0x44 /tmp/ccxW9Zd7.ltrans0.ltrans.o
 .text.send_keyboard
                0x0000000010006550       0x50 /tmp/ccxW9Zd7.ltrans0.ltrans.o
 .text.chThdSleep
                0x00000000100065a0       0x16 /tmp/ccxW9Zd7.ltrans0.ltrans.o
                0x00000000100065a0                chThdSleep
 *fill*         0x00000000100065b6        0x2 
 .text.qk_tap_dance_pair_reset
                0x00000000100065b8       0x24 /tmp/ccxW9Zd7.ltrans0.ltrans.o
 .text.tap_code
                0x00000000100065dc       0x2c /tmp/ccxW9Zd7.ltrans0.ltrans.o
 .text.send_string_with_delay.constprop.93
                0x0000000010006608       0xe0 /tmp/ccxW9Zd7.ltrans0.ltrans.o
 .text.perform_space_cadet.constprop.83
                0x00000000100066e8       0xa4 /tmp/ccxW9Zd7.ltrans0.ltrans.o
 .text.encoder_update_user
                0x000000001000678c       0x58 /tmp/ccxW9Zd7.ltrans0.ltrans.o
 .text.encoder_handlers_master
                0x00000000100067e4       0xb4 /tmp/ccxW9Zd7.ltrans0.ltrans.o
 .text.soft_reset_keyboard
                0x0000000010006898       0x2c /tmp/ccxW9Zd7.ltrans0.ltrans.o
 .text.chThdExit
                0x00000000100068c4       0x28 /tmp/ccxW9Zd7.ltrans0.ltrans.o
                0x00000000100068c4                chThdExit
 .text.chThdCreateStatic
                0x00000000100068ec       0x8c /tmp/ccxW9Zd7.ltrans0.ltrans.o
                0x00000000100068ec                chThdCreateStatic
 .text.__sch_reschedule_ahead
                0x0000000010006978       0x34 /tmp/ccxW9Zd7.ltrans0.ltrans.o
                0x0000000010006978                chSchDoPreemption
 .text.chSchRescheduleS
                0x00000000100069ac       0x28 /tmp/ccxW9Zd7.ltrans0.ltrans.o
 .text.usbStop.constprop.107
                0x00000000100069d4       0x98 /tmp/ccxW9Zd7.ltrans0.ltrans.o
 .text.is_keyboard_master
                0x0000000010006a6c       0x5c /tmp/ccxW9Zd7.ltrans0.ltrans.o
 .text.host_keyboard_leds
                0x0000000010006ac8       0x1c /tmp/ccxW9Zd7.ltrans0.ltrans.o
 .text.sync_timer_read32
                0x0000000010006ae4       0x20 /tmp/ccxW9Zd7.ltrans0.ltrans.o
 .text.sync_timer_handlers_master
                0x0000000010006b04       0x40 /tmp/ccxW9Zd7.ltrans0.ltrans.o
 .text.sync_timer_read
                0x0000000010006b44       0x18 /tmp/ccxW9Zd7.ltrans0.ltrans.o
 .text.rgblight_timer_enable
                0x0000000010006b5c       0x3c /tmp/ccxW9Zd7.ltrans0.ltrans.o
 .text.split_shared_memory_unlock
                0x0000000010006b98       0x68 /tmp/ccxW9Zd7.ltrans0.ltrans.o
                0x0000000010006b98                split_shared_memory_unlock
 .text.chSysPolledDelayX
                0x0000000010006c00       0x14 /tmp/ccxW9Zd7.ltrans0.ltrans.o
                0x0000000010006c00                chSysPolledDelayX
 .text.rgblight_set
                0x0000000010006c14      0x3e0 /tmp/ccxW9Zd7.ltrans0.ltrans.o
 .text.rgblight_setrgb.part.4
                0x0000000010006ff4       0x30 /tmp/ccxW9Zd7.ltrans0.ltrans.o
 .text.rgblight_effect_rgbtest
                0x0000000010007024       0x68 /tmp/ccxW9Zd7.ltrans0.ltrans.o
 .text.rgblight_effect_rainbow_mood
                0x000000001000708c       0x38 /tmp/ccxW9Zd7.ltrans0.ltrans.o
 .text.rgblight_effect_twinkle
                0x00000000100070c4      0x140 /tmp/ccxW9Zd7.ltrans0.ltrans.o
 .text.rgblight_effect_alternating
                0x0000000010007204       0x64 /tmp/ccxW9Zd7.ltrans0.ltrans.o
 .text.rgblight_effect_christmas
                0x0000000010007268       0xa4 /tmp/ccxW9Zd7.ltrans0.ltrans.o
 .text.rgblight_effect_knight
                0x000000001000730c       0xe0 /tmp/ccxW9Zd7.ltrans0.ltrans.o
 .text.rgblight_effect_snake
                0x00000000100073ec       0xf4 /tmp/ccxW9Zd7.ltrans0.ltrans.o
 .text.rgblight_effect_rainbow_swirl
                0x00000000100074e0       0x64 /tmp/ccxW9Zd7.ltrans0.ltrans.o
 .text.rgblight_sethsv_eeprom_helper
                0x0000000010007544       0xfc /tmp/ccxW9Zd7.ltrans0.ltrans.o
 .text.rgblight_decrease_val
                0x0000000010007640       0x24 /tmp/ccxW9Zd7.ltrans0.ltrans.o
 .text.rgblight_increase_val
                0x0000000010007664       0x24 /tmp/ccxW9Zd7.ltrans0.ltrans.o
 .text.rgblight_decrease_sat
                0x0000000010007688       0x24 /tmp/ccxW9Zd7.ltrans0.ltrans.o
 .text.rgblight_increase_sat
                0x00000000100076ac       0x24 /tmp/ccxW9Zd7.ltrans0.ltrans.o
 .text.rgblight_decrease_hue
                0x00000000100076d0       0x1c /tmp/ccxW9Zd7.ltrans0.ltrans.o
 .text.rgblight_increase_hue
                0x00000000100076ec       0x1c /tmp/ccxW9Zd7.ltrans0.ltrans.o
 .text.rgblight_mode_eeprom_helper
                0x0000000010007708       0x7c /tmp/ccxW9Zd7.ltrans0.ltrans.o
 .text.rgblight_step_reverse
                0x0000000010007784       0x20 /tmp/ccxW9Zd7.ltrans0.ltrans.o
 .text.rgblight_step
                0x00000000100077a4       0x1c /tmp/ccxW9Zd7.ltrans0.ltrans.o
 .text.handleKeycodeRGBMode
                0x00000000100077c0       0x28 /tmp/ccxW9Zd7.ltrans0.ltrans.o
 .text.rgblight_disable_noeeprom
                0x00000000100077e8       0x28 /tmp/ccxW9Zd7.ltrans0.ltrans.o
 .text.process_record
                0x0000000010007810      0xc30 /tmp/ccxW9Zd7.ltrans0.ltrans.o
 .text.waiting_buffer_scan_tap
                0x0000000010008440       0x98 /tmp/ccxW9Zd7.ltrans0.ltrans.o
 .text.process_tapping
                0x00000000100084d8      0x328 /tmp/ccxW9Zd7.ltrans0.ltrans.o
 .text.action_exec
                0x0000000010008800      0x16c /tmp/ccxW9Zd7.ltrans0.ltrans.o
 .text.transaction_handler_master.isra.2
                0x000000001000896c       0x4c /tmp/ccxW9Zd7.ltrans0.ltrans.o
 .text.matrix_scan
                0x00000000100089b8      0x4f0 /tmp/ccxW9Zd7.ltrans0.ltrans.o
 .text.__init_ram_areas
                0x0000000010008ea8       0x30 /tmp/ccxW9Zd7.ltrans0.ltrans.o
                0x0000000010008ea8                __init_ram_areas
 .text.__default_exit
                0x0000000010008ed8        0x2 /tmp/ccxW9Zd7.ltrans0.ltrans.o
                0x0000000010008ed8                __default_exit
 .text.__early_init
                0x0000000010008eda        0x2 /tmp/ccxW9Zd7.ltrans0.ltrans.o
                0x0000000010008eda                __early_init
 .text.__late_init
                0x0000000010008edc       0x44 /tmp/ccxW9Zd7.ltrans0.ltrans.o
                0x0000000010008edc                __late_init
 .text.startup.main
                0x0000000010008f20     0x1398 /tmp/ccxW9Zd7.ltrans0.ltrans.o
                0x0000000010008f20                main
 .text.SlaveThread
                0x000000001000a2b8       0xb4 .build/obj_sofle_rev1_EGF2/serial_protocol.a(serial_protocol.o)
 .text.soft_serial_target_init
                0x000000001000a36c       0x24 .build/obj_sofle_rev1_EGF2/serial_protocol.a(serial_protocol.o)
                0x000000001000a36c                soft_serial_target_init
 .text.soft_serial_initiator_init
                0x000000001000a390        0x8 .build/obj_sofle_rev1_EGF2/serial_protocol.a(serial_protocol.o)
                0x000000001000a390                soft_serial_initiator_init
 .text.soft_serial_transaction
                0x000000001000a398       0xa0 .build/obj_sofle_rev1_EGF2/serial_protocol.a(serial_protocol.o)
                0x000000001000a398                soft_serial_transaction
 .text.port_lock
                0x000000001000a438       0x16 .build/obj_sofle_rev1_EGF2/serial_vendor.a(serial_vendor.o)
 .text.port_unlock
                0x000000001000a44e       0x12 .build/obj_sofle_rev1_EGF2/serial_vendor.a(serial_vendor.o)
 .text.sm_config_set_clkdiv
                0x000000001000a460       0x3a .build/obj_sofle_rev1_EGF2/serial_vendor.a(serial_vendor.o)
 *fill*         0x000000001000a49a        0x2 
 .text.pio_sm_set_enabled.constprop.22
                0x000000001000a49c       0x18 .build/obj_sofle_rev1_EGF2/serial_vendor.a(serial_vendor.o)
 .text.receive_impl
                0x000000001000a4b4       0xc4 .build/obj_sofle_rev1_EGF2/serial_vendor.a(serial_vendor.o)
 .text.Vector5C
                0x000000001000a578       0x9c .build/obj_sofle_rev1_EGF2/serial_vendor.a(serial_vendor.o)
                0x000000001000a578                Vector5C
 .text.serial_transport_driver_clear
                0x000000001000a614       0x44 .build/obj_sofle_rev1_EGF2/serial_vendor.a(serial_vendor.o)
                0x000000001000a614                serial_transport_driver_clear
 .text.hot.serial_transport_send
                0x000000001000a658       0xcc .build/obj_sofle_rev1_EGF2/serial_vendor.a(serial_vendor.o)
                0x000000001000a658                serial_transport_send
 .text.hot.serial_transport_receive
                0x000000001000a724       0x10 .build/obj_sofle_rev1_EGF2/serial_vendor.a(serial_vendor.o)
                0x000000001000a724                serial_transport_receive
 .text.hot.serial_transport_receive_blocking
                0x000000001000a734        0xc .build/obj_sofle_rev1_EGF2/serial_vendor.a(serial_vendor.o)
                0x000000001000a734                serial_transport_receive_blocking
 .text.serial_transport_driver_slave_init
                0x000000001000a740      0x1cc .build/obj_sofle_rev1_EGF2/serial_vendor.a(serial_vendor.o)
                0x000000001000a740                serial_transport_driver_slave_init
 .text.serial_transport_driver_master_init
                0x000000001000a90c        0x8 .build/obj_sofle_rev1_EGF2/serial_vendor.a(serial_vendor.o)
                0x000000001000a90c                serial_transport_driver_master_init
 .text.i2c_init
                0x000000001000a914       0x54 .build/obj_sofle_rev1_EGF2/i2c_master.a(i2c_master.o)
                0x000000001000a914                i2c_init
 .text.i2c_stop
                0x000000001000a968       0x10 .build/obj_sofle_rev1_EGF2/i2c_master.a(i2c_master.o)
                0x000000001000a968                i2c_stop
 .text.i2c_epilogue
                0x000000001000a978       0x1a .build/obj_sofle_rev1_EGF2/i2c_master.a(i2c_master.o)
 *fill*         0x000000001000a992        0x2 
 .text.i2c_transmit
                0x000000001000a994       0x6c .build/obj_sofle_rev1_EGF2/i2c_master.a(i2c_master.o)
                0x000000001000a994                i2c_transmit
 .text.i2c_writeReg
                0x000000001000aa00       0x9c .build/obj_sofle_rev1_EGF2/i2c_master.a(i2c_master.o)
                0x000000001000aa00                i2c_writeReg
 *fill*         0x000000001000aa9c        0x4 
 .text.i2c_writeReg.__stub
                0x000000001000aaa0       0xa0 linker stubs
 *(.glue_7t)
 .glue_7t       0x000000001000ab40        0x0 linker stubs
 *(.glue_7)
 .glue_7        0x000000001000ab40        0x0 linker stubs
 *(.gcc*)
                0x000000001000ab40                __text_end__ = .

.vfp11_veneer   0x000000001000ab40        0x0
 .vfp11_veneer  0x000000001000ab40        0x0 linker stubs

.v4_bx          0x000000001000ab40        0x0
 .v4_bx         0x000000001000ab40        0x0 linker stubs

.iplt           0x000000001000ab40        0x0
 .iplt          0x000000001000ab40        0x0 .build/obj_sofle_rev1_EGF2/serial_protocol.a(serial_protocol.o)

.rodata         0x000000001000ab40     0x1708
                0x000000001000ab40                __rodata_base__ = .
 *(.rodata)
 .rodata        0x000000001000ab40       0xac /usr/lib/gcc/arm-none-eabi/8.3.1/thumb/v6-m/nofp/libgcc.a(divsf3.o)
 .rodata        0x000000001000abec       0x40 /usr/lib/gcc/arm-none-eabi/8.3.1/thumb/v6-m/nofp/libgcc.a(mulsf3.o)
 .rodata        0x000000001000ac2c      0x101 /usr/lib/gcc/arm-none-eabi/8.3.1/../../../arm-none-eabi/lib/thumb/v6-m/nofp/libg_nano.a(lib_a-ctype_.o)
                0x000000001000ac2c                _ctype_
 *fill*         0x000000001000ad2d        0x3 
 .rodata        0x000000001000ad30        0x4 /usr/lib/gcc/arm-none-eabi/8.3.1/../../../arm-none-eabi/lib/thumb/v6-m/nofp/libg_nano.a(lib_a-impure.o)
                0x000000001000ad30                _global_impure_ptr
 .rodata        0x000000001000ad34       0x60 /usr/lib/gcc/arm-none-eabi/8.3.1/../../../arm-none-eabi/lib/thumb/v6-m/nofp/libg_nano.a(lib_a-findfp.o)
                0x000000001000ad34                __sf_fake_stderr
                0x000000001000ad54                __sf_fake_stdout
                0x000000001000ad74                __sf_fake_stdin
 *(.rodata.*)
 .rodata.rgblight_effect_twinkle.cst1
                0x000000001000ad94        0x1 /tmp/ccxW9Zd7.ltrans0.ltrans.o
 .rodata.CIE1931_CURVE
                0x000000001000ad95      0x100 /tmp/ccxW9Zd7.ltrans0.ltrans.o
 *fill*         0x000000001000ae95        0x3 
 .rodata.CSWTCH.0
                0x000000001000ae98        0xc /tmp/ccxW9Zd7.ltrans0.ltrans.o
 .rodata.CSWTCH.1
                0x000000001000aea4        0x3 /tmp/ccxW9Zd7.ltrans0.ltrans.o
 .rodata.CSWTCH.26
                0x000000001000aea7        0x3 /tmp/ccxW9Zd7.ltrans0.ltrans.o
 .rodata.CSWTCH.27
                0x000000001000aeaa       0x32 /tmp/ccxW9Zd7.ltrans0.ltrans.o
 .rodata.ConfigurationDescriptor
                0x000000001000aedc       0x3b /tmp/ccxW9Zd7.ltrans0.ltrans.o
 .rodata.DeviceDescriptor
                0x000000001000af17       0x12 /tmp/ccxW9Zd7.ltrans0.ltrans.o
 .rodata.KeyboardReport
                0x000000001000af29       0x40 /tmp/ccxW9Zd7.ltrans0.ltrans.o
 .rodata.LanguageString
                0x000000001000af69        0x4 /tmp/ccxW9Zd7.ltrans0.ltrans.o
 .rodata.ManufacturerString
                0x000000001000af6d       0x1c /tmp/ccxW9Zd7.ltrans0.ltrans.o
 .rodata.ProductString
                0x000000001000af89        0xe /tmp/ccxW9Zd7.ltrans0.ltrans.o
 .rodata.RGBLED_GRADIENT_RANGES
                0x000000001000af97        0x5 /tmp/ccxW9Zd7.ltrans0.ltrans.o
 .rodata.RGBLED_KNIGHT_INTERVALS
                0x000000001000af9c        0x3 /tmp/ccxW9Zd7.ltrans0.ltrans.o
 .rodata.RGBLED_RAINBOW_MOOD_INTERVALS
                0x000000001000af9f        0x3 /tmp/ccxW9Zd7.ltrans0.ltrans.o
 .rodata.RGBLED_RAINBOW_SWIRL_INTERVALS
                0x000000001000afa2        0x3 /tmp/ccxW9Zd7.ltrans0.ltrans.o
 .rodata.RGBLED_SNAKE_INTERVALS
                0x000000001000afa5        0x3 /tmp/ccxW9Zd7.ltrans0.ltrans.o
 .rodata.RGBLED_TWINKLE_INTERVALS
                0x000000001000afa8        0x3 /tmp/ccxW9Zd7.ltrans0.ltrans.o
 .rodata.SharedReport
                0x000000001000afab       0x7b /tmp/ccxW9Zd7.ltrans0.ltrans.o
 .rodata.Vector80.str1.1
                0x000000001000b026        0xd /tmp/ccxW9Zd7.ltrans0.ltrans.o
 *fill*         0x000000001000b033        0x1 
 .rodata.__rp_dma_channels
                0x000000001000b034       0xc0 /tmp/ccxW9Zd7.ltrans0.ltrans.o
 .rodata._exit.str1.1
                0x000000001000b0f4        0x5 /tmp/ccxW9Zd7.ltrans0.ltrans.o
 .rodata._kill.str1.1
                0x000000001000b0f9        0x5 /tmp/ccxW9Zd7.ltrans0.ltrans.o
 .rodata.active_status
                0x000000001000b0fe        0x2 /tmp/ccxW9Zd7.ltrans0.ltrans.o
 .rodata.alarm_irqs
                0x000000001000b100       0x20 /tmp/ccxW9Zd7.ltrans0.ltrans.o
 .rodata.ascii_to_altgr_lut
                0x000000001000b120       0x10 /tmp/ccxW9Zd7.ltrans0.ltrans.o
 .rodata.ascii_to_keycode_lut
                0x000000001000b130       0x80 /tmp/ccxW9Zd7.ltrans0.ltrans.o
 .rodata.ascii_to_shift_lut
                0x000000001000b1b0       0x10 /tmp/ccxW9Zd7.ltrans0.ltrans.o
 .rodata.ch_core0_cfg
                0x000000001000b1c0        0xc /tmp/ccxW9Zd7.ltrans0.ltrans.o
 .rodata.col_pins
                0x000000001000b1cc       0x18 /tmp/ccxW9Zd7.ltrans0.ltrans.o
 .rodata.display_flipped.4974
                0x000000001000b1e4        0x3 /tmp/ccxW9Zd7.ltrans0.ltrans.o
 .rodata.display_normal.4973
                0x000000001000b1e7        0x3 /tmp/ccxW9Zd7.ltrans0.ltrans.o
 .rodata.display_off.5120
                0x000000001000b1ea        0x2 /tmp/ccxW9Zd7.ltrans0.ltrans.o
 .rodata.display_on.5116
                0x000000001000b1ec        0x2 /tmp/ccxW9Zd7.ltrans0.ltrans.o
 .rodata.display_setup1.4972
                0x000000001000b1ee        0xd /tmp/ccxW9Zd7.ltrans0.ltrans.o
 .rodata.display_setup2.4975
                0x000000001000b1fb        0xd /tmp/ccxW9Zd7.ltrans0.ltrans.o
 .rodata.encoder_LUT
                0x000000001000b208       0x10 /tmp/ccxW9Zd7.ltrans0.ltrans.o
 .rodata.ep0config
                0x000000001000b218       0x1c /tmp/ccxW9Zd7.ltrans0.ltrans.o
 .rodata.font   0x000000001000b234      0x540 /tmp/ccxW9Zd7.ltrans0.ltrans.o
 .rodata.halted_status
                0x000000001000b774        0x2 /tmp/ccxW9Zd7.ltrans0.ltrans.o
 .rodata.hand_swap_config
                0x000000001000b776       0x78 /tmp/ccxW9Zd7.ltrans0.ltrans.o
 *fill*         0x000000001000b7ee        0x2 
 .rodata.kbd_ep_config
                0x000000001000b7f0       0x1c /tmp/ccxW9Zd7.ltrans0.ltrans.o
 .rodata.keymaps
                0x000000001000b80c      0x2d0 /tmp/ccxW9Zd7.ltrans0.ltrans.o
 .rodata.layer_VOU_lights
                0x000000001000badc       0x23 /tmp/ccxW9Zd7.ltrans0.ltrans.o
 .rodata.layer_fkey_lights
                0x000000001000baff       0x37 /tmp/ccxW9Zd7.ltrans0.ltrans.o
 .rodata.layer_level3_lights
                0x000000001000bb36        0xf /tmp/ccxW9Zd7.ltrans0.ltrans.o
 .rodata.layer_level4_lights
                0x000000001000bb45       0x41 /tmp/ccxW9Zd7.ltrans0.ltrans.o
 .rodata.layer_qwertz_lights
                0x000000001000bb86       0x14 /tmp/ccxW9Zd7.ltrans0.ltrans.o
 .rodata.layer_vou_lights
                0x000000001000bb9a       0x23 /tmp/ccxW9Zd7.ltrans0.ltrans.o
 .rodata.main.str1.1
                0x000000001000bbbd       0x42 /tmp/ccxW9Zd7.ltrans0.ltrans.o
 .rodata.mode_base_table
                0x000000001000bbff       0x27 /tmp/ccxW9Zd7.ltrans0.ltrans.o
 *fill*         0x000000001000bc26        0x2 
 .rodata.my_rgb_layers
                0x000000001000bc28       0x1c /tmp/ccxW9Zd7.ltrans0.ltrans.o
 .rodata.pio_add_program.str1.1
                0x000000001000bc44       0x11 /tmp/ccxW9Zd7.ltrans0.ltrans.o
 .rodata.pio_claim_unused_sm.str1.1
                0x000000001000bc55       0x24 /tmp/ccxW9Zd7.ltrans0.ltrans.o
 .rodata.process_record.str1.1
                0x000000001000bc79      0x2b4 /tmp/ccxW9Zd7.ltrans0.ltrans.o
 .rodata.qmk_logo.12709
                0x000000001000bf2d       0x40 /tmp/ccxW9Zd7.ltrans0.ltrans.o
 *fill*         0x000000001000bf6d        0x3 
 .rodata.ram_areas
                0x000000001000bf70       0x80 /tmp/ccxW9Zd7.ltrans0.ltrans.o
 .rodata.rgblight_effect_breathe_table
                0x000000001000bff0      0x100 /tmp/ccxW9Zd7.ltrans0.ltrans.o
 .rodata.row_pins
                0x000000001000c0f0       0x14 /tmp/ccxW9Zd7.ltrans0.ltrans.o
 .rodata.shared_ep_config
                0x000000001000c104       0x1c /tmp/ccxW9Zd7.ltrans0.ltrans.o
 .rodata.source_map.5023
                0x000000001000c120        0x4 /tmp/ccxW9Zd7.ltrans0.ltrans.o
 .rodata.split_shmem
                0x000000001000c124        0x4 /tmp/ccxW9Zd7.ltrans0.ltrans.o
                0x000000001000c124                split_shmem
 .rodata.str1.1
                0x000000001000c128        0x3 /tmp/ccxW9Zd7.ltrans0.ltrans.o
 .rodata.target_map.5024
                0x000000001000c12b        0x4 /tmp/ccxW9Zd7.ltrans0.ltrans.o
 *fill*         0x000000001000c12f        0x1 
 .rodata.usbcfg
                0x000000001000c130       0x10 /tmp/ccxW9Zd7.ltrans0.ltrans.o
 .rodata.ws2812_program
                0x000000001000c140        0x6 /tmp/ccxW9Zd7.ltrans0.ltrans.o
 .rodata.ws2812_program_instructions
                0x000000001000c146        0xc /tmp/ccxW9Zd7.ltrans0.ltrans.o
 .rodata.zero_status
                0x000000001000c152        0x2 /tmp/ccxW9Zd7.ltrans0.ltrans.o
 .rodata.uart_rx_program
                0x000000001000c154        0x6 .build/obj_sofle_rev1_EGF2/serial_vendor.a(serial_vendor.o)
 .rodata.uart_rx_program_instructions
                0x000000001000c15a       0x12 .build/obj_sofle_rev1_EGF2/serial_vendor.a(serial_vendor.o)
 .rodata.uart_tx_program
                0x000000001000c16c        0x6 .build/obj_sofle_rev1_EGF2/serial_vendor.a(serial_vendor.o)
 .rodata.uart_tx_program_instructions
                0x000000001000c172        0x8 .build/obj_sofle_rev1_EGF2/serial_vendor.a(serial_vendor.o)
 *fill*         0x000000001000c17a        0x2 
 .rodata.i2cconfig
                0x000000001000c17c        0x4 .build/obj_sofle_rev1_EGF2/i2c_master.a(i2c_master.o)
 .rodata.str1.4
                0x000000001000c180       0x4a /usr/lib/gcc/arm-none-eabi/8.3.1/../../../arm-none-eabi/lib/thumb/v6-m/nofp/libg_nano.a(lib_a-rand.o)
 *fill*         0x000000001000c1ca        0x2 
 .rodata.str1.4
                0x000000001000c1cc       0x3f /usr/lib/gcc/arm-none-eabi/8.3.1/../../../arm-none-eabi/lib/thumb/v6-m/nofp/libg_nano.a(lib_a-assert.o)
                                         0x43 (size before relaxing)
 *fill*         0x000000001000c20b        0x1 
 .rodata.str1.4
                0x000000001000c20c       0x13 /usr/lib/gcc/arm-none-eabi/8.3.1/../../../arm-none-eabi/lib/thumb/v6-m/nofp/libg_nano.a(lib_a-nano-vfprintf.o)
 *fill*         0x000000001000c21f        0x1 
 .rodata.str1.4
                0x000000001000c220       0x25 /usr/lib/gcc/arm-none-eabi/8.3.1/../../../arm-none-eabi/lib/thumb/v6-m/nofp/libg_nano.a(lib_a-nano-vfprintf_i.o)
                0x000000001000c248                . = ALIGN (0x4)
 *fill*         0x000000001000c245        0x3 
                0x000000001000c248                __rodata_end__ = .

.rel.dyn        0x000000001000c248        0x0
 .rel.iplt      0x000000001000c248        0x0 .build/obj_sofle_rev1_EGF2/serial_protocol.a(serial_protocol.o)

.ARM.extab
 *(.ARM.extab* .gnu.linkonce.armextab.*)

.ARM.exidx      0x000000001000c248        0x0
                0x000000001000c248                __exidx_base__ = .
                0x000000001000c248                __exidx_start = .
 *(.ARM.exidx* .gnu.linkonce.armexidx.*)
                0x000000001000c248                __exidx_end__ = .
                0x000000001000c248                __exidx_end = .

.eh_frame_hdr
 *(.eh_frame_hdr)

.eh_frame
 *(.eh_frame)

.data           0x0000000020000000      0x97c load address 0x000000001000c248
                [!provide]                        PROVIDE (_textdata = LOADADDR (.data))
                [!provide]                        PROVIDE (_data = .)
                0x000000001000c248                __textdata_base__ = LOADADDR (.data)
                0x0000000020000000                __data_base__ = .
 *(vtable)
 *(.time_critical*)
 .time_critical.flash_enable_xip_via_boot2
                0x0000000020000000       0x20 /tmp/ccxW9Zd7.ltrans0.ltrans.o
 .time_critical.flash_init_boot2_copyout
                0x0000000020000020       0x30 /tmp/ccxW9Zd7.ltrans0.ltrans.o
 .time_critical.flash_range_erase
                0x0000000020000050       0x60 /tmp/ccxW9Zd7.ltrans0.ltrans.o
 .time_critical.flash_was_aborted
                0x00000000200000b0       0x10 /tmp/ccxW9Zd7.ltrans0.ltrans.o
 .time_critical.flash_cs_force
                0x00000000200000c0       0x24 /tmp/ccxW9Zd7.ltrans0.ltrans.o
 .time_critical.flash_put_cmd_addr
                0x00000000200000e4       0x24 /tmp/ccxW9Zd7.ltrans0.ltrans.o
 .time_critical.flash_put_get
                0x0000000020000108       0x6a /tmp/ccxW9Zd7.ltrans0.ltrans.o
 .time_critical._flash_do_cmd
                0x0000000020000172       0x22 /tmp/ccxW9Zd7.ltrans0.ltrans.o
 .time_critical.flash_enable_write
                0x0000000020000194        0xe /tmp/ccxW9Zd7.ltrans0.ltrans.o
 .time_critical.flash_wait_ready
                0x00000000200001a2       0x22 /tmp/ccxW9Zd7.ltrans0.ltrans.o
 .time_critical.pico_program_bulk
                0x00000000200001c4       0x94 /tmp/ccxW9Zd7.ltrans0.ltrans.o
 .time_critical.enter_rx_state
                0x0000000020000258       0x68 .build/obj_sofle_rev1_EGF2/serial_vendor.a(serial_vendor.o)
 .time_critical.leave_rx_state
                0x00000000200002c0       0x60 .build/obj_sofle_rev1_EGF2/serial_vendor.a(serial_vendor.o)
 .time_critical.__wrap___aeabi_idiv
                0x0000000020000320       0x40 .build/obj_sofle_rev1/./lib/pico-sdk/src/rp2_common/pico_divider/divider.o
                0x0000000020000320                __wrap___aeabi_idivmod
                0x0000000020000320                divmod_s32s32
                0x0000000020000320                div_s32s32
                0x0000000020000320                __wrap___aeabi_idiv
                0x0000000020000320                divmod_s32s32_unsafe
 .time_critical.__wrap___aeabi_uidiv
                0x0000000020000360       0x3c .build/obj_sofle_rev1/./lib/pico-sdk/src/rp2_common/pico_divider/divider.o
                0x0000000020000360                divmod_u32u32_unsafe
                0x0000000020000360                __wrap___aeabi_uidiv
                0x0000000020000360                __wrap___aeabi_uidivmod
                0x0000000020000360                div_u32u32
                0x0000000020000360                divmod_u32u32
 .time_critical.__wrap___aeabi_ldiv
                0x000000002000039c      0x3ec .build/obj_sofle_rev1/./lib/pico-sdk/src/rp2_common/pico_divider/divider.o
                0x000000002000039c                div_s64s64
                0x000000002000039c                divmod_s64s64
                0x000000002000039c                __wrap___aeabi_ldivmod
                0x00000000200003b0                div_u64u64
                0x00000000200003b0                divmod_u64u64
                0x00000000200003b0                __wrap___aeabi_uldivmod
                0x00000000200003c4                divmod_s64s64_unsafe
                0x000000002000044c                divmod_u64u64_unsafe
 .time_critical.__aeabi_lmul
                0x0000000020000788       0x32 .build/obj_sofle_rev1/./lib/pico-sdk/src/rp2_common/pico_int64_ops/pico_int64_ops_aeabi.o
                0x0000000020000788                __wrap___aeabi_lmul
 *fill*         0x00000000200007ba        0x6 
 .time_critical.__aeabi_lmul.__stub
                0x00000000200007c0       0x90 linker stubs
                0x0000000020000850                . = ALIGN (0x4)
 *fill*         0x0000000020000850        0x0 
 *(.data)
 .data          0x0000000020000850       0x64 /usr/lib/gcc/arm-none-eabi/8.3.1/../../../arm-none-eabi/lib/thumb/v6-m/nofp/libg_nano.a(lib_a-impure.o)
                0x0000000020000850                _impure_ptr
 *(.data.*)
 .data.SPLIT_SHARED_MEMORY_MUTEX
                0x00000000200008b4       0x10 /tmp/ccxW9Zd7.ltrans0.ltrans.o
 .data.STATE_MACHINE
                0x00000000200008c4        0x4 /tmp/ccxW9Zd7.ltrans0.ltrans.o
 .data.TRANSFER_COUNTER
                0x00000000200008c8        0xc /tmp/ccxW9Zd7.ltrans0.ltrans.o
 .data.__compound_literal.0.lto_priv.167
                0x00000000200008d4        0x4 /tmp/ccxW9Zd7.ltrans0.ltrans.o
 .data.chibios_driver
                0x00000000200008d8       0x10 /tmp/ccxW9Zd7.ltrans0.ltrans.o
 .data.display_start.5022
                0x00000000200008e8        0x7 /tmp/ccxW9Zd7.ltrans0.ltrans.o
 *fill*         0x00000000200008ef        0x1 
 .data.encoders_pad_a
                0x00000000200008f0        0x4 /tmp/ccxW9Zd7.ltrans0.ltrans.o
 .data.encoders_pad_b
                0x00000000200008f4        0x4 /tmp/ccxW9Zd7.ltrans0.ltrans.o
 .data.func     0x00000000200008f8        0x4 /tmp/ccxW9Zd7.ltrans0.ltrans.o
 .data.high_bound.6991
                0x00000000200008fc        0x1 /tmp/ccxW9Zd7.ltrans0.ltrans.o
 .data.increment.6992
                0x00000000200008fd        0x1 /tmp/ccxW9Zd7.ltrans0.ltrans.o
 .data.increment.7004
                0x00000000200008fe        0x1 /tmp/ccxW9Zd7.ltrans0.ltrans.o
 .data.isLeftHand
                0x00000000200008ff        0x1 /tmp/ccxW9Zd7.ltrans0.ltrans.o
 .data.keyboard_protocol
                0x0000000020000900        0x1 /tmp/ccxW9Zd7.ltrans0.ltrans.o
 .data.last_num.11986
                0x0000000020000901        0x1 /tmp/ccxW9Zd7.ltrans0.ltrans.o
 .data.periods  0x0000000020000902        0x1 /tmp/ccxW9Zd7.ltrans0.ltrans.o
 .data.rgblight_ranges
                0x0000000020000903        0x5 /tmp/ccxW9Zd7.ltrans0.ltrans.o
 .data.split_transaction_table
                0x0000000020000908       0x48 /tmp/ccxW9Zd7.ltrans0.ltrans.o
                0x0000000020000908                split_transaction_table
 .data.static_effect_table
                0x0000000020000950        0xb /tmp/ccxW9Zd7.ltrans0.ltrans.o
 *fill*         0x000000002000095b        0x1 
 .data.tap_dance_actions
                0x000000002000095c       0x18 /tmp/ccxW9Zd7.ltrans0.ltrans.o
 .data.rx_state_machine
                0x0000000020000974        0x4 .build/obj_sofle_rev1_EGF2/serial_vendor.a(serial_vendor.o)
 .data.tx_state_machine
                0x0000000020000978        0x4 .build/obj_sofle_rev1_EGF2/serial_vendor.a(serial_vendor.o)
 *(.ramtext)
                0x000000002000097c                . = ALIGN (0x4)
                [!provide]                        PROVIDE (_edata = .)
                0x000000002000097c                __data_end__ = .

.igot.plt       0x000000002000097c        0x0 load address 0x000000001000cbc4
 .igot.plt      0x000000002000097c        0x0 .build/obj_sofle_rev1_EGF2/serial_protocol.a(serial_protocol.o)

.bss            0x0000000020000980     0x2160 load address 0x000000001000cbc4
                0x0000000020000980                __bss_base__ = .
 *(.bss)
 .bss           0x0000000020000980        0x8 /usr/lib/gcc/arm-none-eabi/8.3.1/../../../arm-none-eabi/lib/thumb/v6-m/nofp/libg_nano.a(lib_a-nano-mallocr.o)
                0x0000000020000980                __malloc_free_list
                0x0000000020000984                __malloc_sbrk_start
 *(.bss.*)
 .bss.BOOT2_ROM_RAM
                0x0000000020000988      0x100 /tmp/ccxW9Zd7.ltrans0.ltrans.o
 .bss.LAST_TRANSFER
                0x0000000020000a88        0x4 /tmp/ccxW9Zd7.ltrans0.ltrans.o
 .bss.RP_DMA_MODE_WS2812
                0x0000000020000a8c        0x4 /tmp/ccxW9Zd7.ltrans0.ltrans.o
 .bss.SPID0     0x0000000020000a90       0x30 /tmp/ccxW9Zd7.ltrans0.ltrans.o
 .bss.USBD1     0x0000000020000ac0       0xe4 /tmp/ccxW9Zd7.ltrans0.ltrans.o
 .bss.WS2812_BUFFER
                0x0000000020000ba4      0x118 /tmp/ccxW9Zd7.ltrans0.ltrans.o
 .bss.WS2812_DMA_CHANNEL
                0x0000000020000cbc        0x4 /tmp/ccxW9Zd7.ltrans0.ltrans.o
 .bss.__compound_literal.0.lto_priv.168
                0x0000000020000cc0        0x8 /tmp/ccxW9Zd7.ltrans0.ltrans.o
 .bss._used_instruction_space
                0x0000000020000cc8        0x8 /tmp/ccxW9Zd7.ltrans0.ltrans.o
 .bss.active_td
                0x0000000020000cd0        0x2 /tmp/ccxW9Zd7.ltrans0.ltrans.o
 .bss.animation_status
                0x0000000020000cd2        0x6 /tmp/ccxW9Zd7.ltrans0.ltrans.o
 .bss.boot2_copyout
                0x0000000020000cd8      0x100 /tmp/ccxW9Zd7.ltrans0.ltrans.o
 .bss.boot2_copyout_valid
                0x0000000020000dd8        0x1 /tmp/ccxW9Zd7.ltrans0.ltrans.o
 .bss.buf.11985
                0x0000000020000dd9        0x4 /tmp/ccxW9Zd7.ltrans0.ltrans.o
 *fill*         0x0000000020000ddd        0x1 
 .bss.bulk_write_buffer.5480
                0x0000000020000dde       0x80 /tmp/ccxW9Zd7.ltrans0.ltrans.o
 *fill*         0x0000000020000e5e        0x2 
 .bss.ch_memcore
                0x0000000020000e60        0x8 /tmp/ccxW9Zd7.ltrans0.ltrans.o
 .bss.ch_system
                0x0000000020000e68       0x10 /tmp/ccxW9Zd7.ltrans0.ltrans.o
 .bss.claimed   0x0000000020000e78        0x1 /tmp/ccxW9Zd7.ltrans0.ltrans.o
 *fill*         0x0000000020000e79        0x3 
 .bss.configured_freq
                0x0000000020000e7c       0x28 /tmp/ccxW9Zd7.ltrans0.ltrans.o
 .bss.connection_check_timer.11949
                0x0000000020000ea4        0x2 /tmp/ccxW9Zd7.ltrans0.ltrans.o
 .bss.connection_errors
                0x0000000020000ea6        0x1 /tmp/ccxW9Zd7.ltrans0.ltrans.o
 .bss.current_period
                0x0000000020000ea7        0x1 /tmp/ccxW9Zd7.ltrans0.ltrans.o
 .bss.current_wpm
                0x0000000020000ea8        0x1 /tmp/ccxW9Zd7.ltrans0.ltrans.o
 .bss.debouncing
                0x0000000020000ea9        0x1 /tmp/ccxW9Zd7.ltrans0.ltrans.o
 *fill*         0x0000000020000eaa        0x2 
 .bss.debouncing_time
                0x0000000020000eac        0x4 /tmp/ccxW9Zd7.ltrans0.ltrans.o
 .bss.debug_config
                0x0000000020000eb0        0x1 /tmp/ccxW9Zd7.ltrans0.ltrans.o
 *fill*         0x0000000020000eb1        0x1 
 .bss.decay_timer.5042
                0x0000000020000eb2        0x2 /tmp/ccxW9Zd7.ltrans0.ltrans.o
 .bss.default_layer_state
                0x0000000020000eb4        0x2 /tmp/ccxW9Zd7.ltrans0.ltrans.o
 .bss.deferred_set_layer_state
                0x0000000020000eb6        0x1 /tmp/ccxW9Zd7.ltrans0.ltrans.o
 *fill*         0x0000000020000eb7        0x1 
 .bss.desc.10856
                0x0000000020000eb8        0x8 /tmp/ccxW9Zd7.ltrans0.ltrans.o
 .bss.dma       0x0000000020000ec0       0x68 /tmp/ccxW9Zd7.ltrans0.ltrans.o
 .bss.driver.lto_priv.163
                0x0000000020000f28        0x4 /tmp/ccxW9Zd7.ltrans0.ltrans.o
 .bss.driver.lto_priv.164
                0x0000000020000f2c        0x4 /tmp/ccxW9Zd7.ltrans0.ltrans.o
 .bss.encoder_pulses
                0x0000000020000f30        0x2 /tmp/ccxW9Zd7.ltrans0.ltrans.o
 .bss.encoder_state
                0x0000000020000f32        0x2 /tmp/ccxW9Zd7.ltrans0.ltrans.o
 .bss.encoder_value
                0x0000000020000f34        0x2 /tmp/ccxW9Zd7.ltrans0.ltrans.o
 *fill*         0x0000000020000f36        0x2 
 .bss.ep0_state
                0x0000000020000f38       0x40 /tmp/ccxW9Zd7.ltrans0.ltrans.o
 .bss.event_queue
                0x0000000020000f78       0x10 /tmp/ccxW9Zd7.ltrans0.ltrans.o
 .bss.event_queue_head
                0x0000000020000f88        0x1 /tmp/ccxW9Zd7.ltrans0.ltrans.o
 .bss.event_queue_tail
                0x0000000020000f89        0x1 /tmp/ccxW9Zd7.ltrans0.ltrans.o
 .bss.grave_esc_was_shifted
                0x0000000020000f8a        0x1 /tmp/ccxW9Zd7.ltrans0.ltrans.o
 *fill*         0x0000000020000f8b        0x1 
 .bss.interrupts
                0x0000000020000f8c        0x4 /tmp/ccxW9Zd7.ltrans0.ltrans.o
 .bss.is_initialized.12747
                0x0000000020000f90        0x1 /tmp/ccxW9Zd7.ltrans0.ltrans.o
 .bss.is_rgblight_initialized
                0x0000000020000f91        0x1 /tmp/ccxW9Zd7.ltrans0.ltrans.o
 .bss.is_suspended
                0x0000000020000f92        0x1 /tmp/ccxW9Zd7.ltrans0.ltrans.o
 *fill*         0x0000000020000f93        0x1 
 .bss.kbd_ep_state
                0x0000000020000f94       0x20 /tmp/ccxW9Zd7.ltrans0.ltrans.o
 .bss.keyboard_idle
                0x0000000020000fb4        0x1 /tmp/ccxW9Zd7.ltrans0.ltrans.o
 *fill*         0x0000000020000fb5        0x3 
 .bss.keyboard_idle_timer
                0x0000000020000fb8       0x18 /tmp/ccxW9Zd7.ltrans0.ltrans.o
 .bss.keyboard_led_state
                0x0000000020000fd0        0x1 /tmp/ccxW9Zd7.ltrans0.ltrans.o
 .bss.keyboard_report_sent
                0x0000000020000fd1        0x8 /tmp/ccxW9Zd7.ltrans0.ltrans.o
 *fill*         0x0000000020000fd9        0x1 
 .bss.keymap_config
                0x0000000020000fda        0x2 /tmp/ccxW9Zd7.ltrans0.ltrans.o
 .bss.last_connected.11994
                0x0000000020000fdc        0x1 /tmp/ccxW9Zd7.ltrans0.ltrans.o
 *fill*         0x0000000020000fdd        0x1 
 .bss.last_consumer_usage
                0x0000000020000fde        0x2 /tmp/ccxW9Zd7.ltrans0.ltrans.o
 .bss.last_led_status.10069
                0x0000000020000fe0        0x1 /tmp/ccxW9Zd7.ltrans0.ltrans.o
 .bss.last_matrix.12009
                0x0000000020000fe1        0x5 /tmp/ccxW9Zd7.ltrans0.ltrans.o
 .bss.last_pad.11987
                0x0000000020000fe6        0x1 /tmp/ccxW9Zd7.ltrans0.ltrans.o
 .bss.last_report.6797
                0x0000000020000fe7        0x8 /tmp/ccxW9Zd7.ltrans0.ltrans.o
 .bss.last_suspend_state
                0x0000000020000fef        0x1 /tmp/ccxW9Zd7.ltrans0.ltrans.o
 .bss.last_sync_timer.12071
                0x0000000020000ff0        0x4 /tmp/ccxW9Zd7.ltrans0.ltrans.o
 .bss.last_system_usage
                0x0000000020000ff4        0x2 /tmp/ccxW9Zd7.ltrans0.ltrans.o
 .bss.last_tap_time
                0x0000000020000ff6        0x2 /tmp/ccxW9Zd7.ltrans0.ltrans.o
 .bss.last_tick.12025
                0x0000000020000ff8        0x2 /tmp/ccxW9Zd7.ltrans0.ltrans.o
 *fill*         0x0000000020000ffa        0x2 
 .bss.last_ticks
                0x0000000020000ffc        0x4 /tmp/ccxW9Zd7.ltrans0.ltrans.o
 .bss.last_timer_c
                0x0000000020001000        0x2 /tmp/ccxW9Zd7.ltrans0.ltrans.o
 .bss.last_timer_w
                0x0000000020001002        0x2 /tmp/ccxW9Zd7.ltrans0.ltrans.o
 .bss.last_update.12008
                0x0000000020001004        0x4 /tmp/ccxW9Zd7.ltrans0.ltrans.o
 .bss.last_update.12020
                0x0000000020001008        0x4 /tmp/ccxW9Zd7.ltrans0.ltrans.o
 .bss.last_update.12064
                0x000000002000100c        0x4 /tmp/ccxW9Zd7.ltrans0.ltrans.o
 .bss.last_update.12076
                0x0000000020001010        0x4 /tmp/ccxW9Zd7.ltrans0.ltrans.o
 .bss.layer_state
                0x0000000020001014        0x2 /tmp/ccxW9Zd7.ltrans0.ltrans.o
 .bss.led       0x0000000020001016       0xd2 /tmp/ccxW9Zd7.ltrans0.ltrans.o
 .bss.led_twinkle_state
                0x00000000200010e8      0x15e /tmp/ccxW9Zd7.ltrans0.ltrans.o
 .bss.low_bound.6990
                0x0000000020001246        0x1 /tmp/ccxW9Zd7.ltrans0.ltrans.o
 .bss.matrix    0x0000000020001247        0xa /tmp/ccxW9Zd7.ltrans0.ltrans.o
 .bss.matrix_previous.12032
                0x0000000020001251        0xa /tmp/ccxW9Zd7.ltrans0.ltrans.o
 .bss.matrix_swap_state.10783
                0x000000002000125b        0x8 /tmp/ccxW9Zd7.ltrans0.ltrans.o
 .bss.maxval.7019
                0x0000000020001263        0x1 /tmp/ccxW9Zd7.ltrans0.ltrans.o
 .bss.mouse_report
                0x0000000020001264        0x6 /tmp/ccxW9Zd7.ltrans0.ltrans.o
 .bss.mousekey_accel
                0x000000002000126a        0x1 /tmp/ccxW9Zd7.ltrans0.ltrans.o
 .bss.mousekey_repeat
                0x000000002000126b        0x1 /tmp/ccxW9Zd7.ltrans0.ltrans.o
 .bss.mousekey_wheel_repeat
                0x000000002000126c        0x1 /tmp/ccxW9Zd7.ltrans0.ltrans.o
 *fill*         0x000000002000126d        0x3 
 .bss.ms_offset
                0x0000000020001270        0x4 /tmp/ccxW9Zd7.ltrans0.ltrans.o
 .bss.next_wpm  0x0000000020001274        0x1 /tmp/ccxW9Zd7.ltrans0.ltrans.o
 .bss.oled_active
                0x0000000020001275        0x1 /tmp/ccxW9Zd7.ltrans0.ltrans.o
 .bss.oled_buffer
                0x0000000020001276      0x200 /tmp/ccxW9Zd7.ltrans0.ltrans.o
 *fill*         0x0000000020001476        0x2 
 .bss.oled_cursor
                0x0000000020001478        0x4 /tmp/ccxW9Zd7.ltrans0.ltrans.o
 .bss.oled_dirty
                0x000000002000147c        0x2 /tmp/ccxW9Zd7.ltrans0.ltrans.o
 .bss.oled_initialized
                0x000000002000147e        0x1 /tmp/ccxW9Zd7.ltrans0.ltrans.o
 .bss.oled_rotation
                0x000000002000147f        0x1 /tmp/ccxW9Zd7.ltrans0.ltrans.o
 .bss.oled_rotation_width
                0x0000000020001480        0x1 /tmp/ccxW9Zd7.ltrans0.ltrans.o
 .bss.oled_scrolling
                0x0000000020001481        0x1 /tmp/ccxW9Zd7.ltrans0.ltrans.o
 .bss.oled_temp_buffer.5055
                0x0000000020001482        0x6 /tmp/ccxW9Zd7.ltrans0.ltrans.o
 .bss.oled_timeout
                0x0000000020001488        0x4 /tmp/ccxW9Zd7.ltrans0.ltrans.o
 .bss.oled_update_timeout
                0x000000002000148c        0x2 /tmp/ccxW9Zd7.ltrans0.ltrans.o
 .bss.oneshot_layer_data
                0x000000002000148e        0x1 /tmp/ccxW9Zd7.ltrans0.ltrans.o
 .bss.oneshot_mods
                0x000000002000148f        0x1 /tmp/ccxW9Zd7.ltrans0.ltrans.o
 .bss.period_presses
                0x0000000020001490       0x32 /tmp/ccxW9Zd7.ltrans0.ltrans.o
 .bss.pos.6974  0x00000000200014c2        0x1 /tmp/ccxW9Zd7.ltrans0.ltrans.o
 .bss.pre_suspend_enabled
                0x00000000200014c3        0x1 /tmp/ccxW9Zd7.ltrans0.ltrans.o
 .bss.prev_wpm  0x00000000200014c4        0x1 /tmp/ccxW9Zd7.ltrans0.ltrans.o
 .bss.raw_matrix
                0x00000000200014c5        0xa /tmp/ccxW9Zd7.ltrans0.ltrans.o
 .bss.real_mods
                0x00000000200014cf        0x1 /tmp/ccxW9Zd7.ltrans0.ltrans.o
 .bss.report_last_timer.6949
                0x00000000200014d0        0x2 /tmp/ccxW9Zd7.ltrans0.ltrans.o
 *fill*         0x00000000200014d2        0x2 
 .bss.rgblight_config
                0x00000000200014d4        0x8 /tmp/ccxW9Zd7.ltrans0.ltrans.o
 .bss.rgblight_layers
                0x00000000200014dc        0x4 /tmp/ccxW9Zd7.ltrans0.ltrans.o
 .bss.rgblight_status
                0x00000000200014e0        0x4 /tmp/ccxW9Zd7.ltrans0.ltrans.o
 .bss.sc_last   0x00000000200014e4        0x1 /tmp/ccxW9Zd7.ltrans0.ltrans.o
 *fill*         0x00000000200014e5        0x1 
 .bss.sc_timer  0x00000000200014e6        0x2 /tmp/ccxW9Zd7.ltrans0.ltrans.o
 .bss.set_report_buf
                0x00000000200014e8        0x2 /tmp/ccxW9Zd7.ltrans0.ltrans.o
 *fill*         0x00000000200014ea        0x2 
 .bss.shared_ep_state
                0x00000000200014ec       0x20 /tmp/ccxW9Zd7.ltrans0.ltrans.o
 .bss.shared_memory
                0x000000002000150c       0x18 /tmp/ccxW9Zd7.ltrans0.ltrans.o
 .bss.smoothing_timer
                0x0000000020001524        0x4 /tmp/ccxW9Zd7.ltrans0.ltrans.o
 .bss.source_layers_cache
                0x0000000020001528       0x20 /tmp/ccxW9Zd7.ltrans0.ltrans.o
 .bss.st_callbacks
                0x0000000020001548       0x10 /tmp/ccxW9Zd7.ltrans0.ltrans.o
 .bss.swap_hands
                0x0000000020001558        0x1 /tmp/ccxW9Zd7.ltrans0.ltrans.o
 .bss.swap_hands_oneshot
                0x0000000020001559        0x1 /tmp/ccxW9Zd7.ltrans0.ltrans.o
 .bss.swap_held
                0x000000002000155a        0x1 /tmp/ccxW9Zd7.ltrans0.ltrans.o
 *fill*         0x000000002000155b        0x1 
 .bss.sync_timer_ms
                0x000000002000155c        0x4 /tmp/ccxW9Zd7.ltrans0.ltrans.o
 .bss.tapping_key
                0x0000000020001560        0x8 /tmp/ccxW9Zd7.ltrans0.ltrans.o
 .bss.temp_buffer.5025
                0x0000000020001568       0x20 /tmp/ccxW9Zd7.ltrans0.ltrans.o
 .bss.thatCount
                0x0000000020001588        0x1 /tmp/ccxW9Zd7.ltrans0.ltrans.o
 .bss.thatHand  0x0000000020001589        0x1 /tmp/ccxW9Zd7.ltrans0.ltrans.o
 .bss.thatHand.lto_priv.166
                0x000000002000158a        0x1 /tmp/ccxW9Zd7.ltrans0.ltrans.o
 .bss.thisCount
                0x000000002000158b        0x1 /tmp/ccxW9Zd7.ltrans0.ltrans.o
 .bss.thisHand  0x000000002000158c        0x1 /tmp/ccxW9Zd7.ltrans0.ltrans.o
 .bss.thisHand.lto_priv.165
                0x000000002000158d        0x1 /tmp/ccxW9Zd7.ltrans0.ltrans.o
 .bss.tick_flag.6950
                0x000000002000158e        0x1 /tmp/ccxW9Zd7.ltrans0.ltrans.o
 *fill*         0x000000002000158f        0x1 
 .bss.ticks_offset
                0x0000000020001590        0x4 /tmp/ccxW9Zd7.ltrans0.ltrans.o
 .bss.typing_speed
                0x0000000020001594        0x1 /tmp/ccxW9Zd7.ltrans0.ltrans.o
 .bss.usbstate.11934
                0x0000000020001595        0x1 /tmp/ccxW9Zd7.ltrans0.ltrans.o
 .bss.waiting_buffer
                0x0000000020001596       0x40 /tmp/ccxW9Zd7.ltrans0.ltrans.o
 .bss.waiting_buffer_head
                0x00000000200015d6        0x1 /tmp/ccxW9Zd7.ltrans0.ltrans.o
 .bss.waiting_buffer_tail
                0x00000000200015d7        0x1 /tmp/ccxW9Zd7.ltrans0.ltrans.o
 .bss.weak_mods
                0x00000000200015d8        0x1 /tmp/ccxW9Zd7.ltrans0.ltrans.o
 *fill*         0x00000000200015d9        0x3 
 .bss.wear_leveling
                0x00000000200015dc     0x1008 /tmp/ccxW9Zd7.ltrans0.ltrans.o
 .bss.wpm_timer
                0x00000000200025e4        0x4 /tmp/ccxW9Zd7.ltrans0.ltrans.o
 .bss.waSlaveThread
                0x00000000200025e8      0x4b0 .build/obj_sofle_rev1_EGF2/serial_protocol.a(serial_protocol.o)
 .bss.rx_thread
                0x0000000020002a98        0x4 .build/obj_sofle_rev1_EGF2/serial_vendor.a(serial_vendor.o)
                0x0000000020002a98                rx_thread
 .bss.tx_thread
                0x0000000020002a9c        0x4 .build/obj_sofle_rev1_EGF2/serial_vendor.a(serial_vendor.o)
                0x0000000020002a9c                tx_thread
 .bss.i2c_address
                0x0000000020002aa0        0x1 .build/obj_sofle_rev1_EGF2/i2c_master.a(i2c_master.o)
 .bss.is_initialised.11893
                0x0000000020002aa1        0x1 .build/obj_sofle_rev1_EGF2/i2c_master.a(i2c_master.o)
 *(COMMON)
 *fill*         0x0000000020002aa2        0x2 
 COMMON         0x0000000020002aa4       0x38 /tmp/ccxW9Zd7.ltrans0.ltrans.o
                0x0000000020002aa4                I2CD2
 COMMON         0x0000000020002adc        0x4 /usr/lib/gcc/arm-none-eabi/8.3.1/../../../arm-none-eabi/lib/thumb/v6-m/nofp/libg_nano.a(lib_a-reent.o)
                0x0000000020002adc                errno
                0x0000000020002ae0                . = ALIGN (0x4)
                0x0000000020002ae0                __bss_end__ = .
                [!provide]                        PROVIDE (end = .)
                0x0000000020000000                __ram0_base__ = ORIGIN (ram0)
                0x0000000000040000                __ram0_size__ = LENGTH (ram0)
                0x0000000020040000                __ram0_end__ = (__ram0_base__ + __ram0_size__)
                0x0000000000000000                __ram1_base__ = ORIGIN (ram1)
                0x0000000000040000                __ram1_size__ = LENGTH (ram1)
                0x0000000000040000                __ram1_end__ = (__ram1_base__ + __ram1_size__)
                0x0000000000000000                __ram2_base__ = ORIGIN (ram2)
                0x0000000000000000                __ram2_size__ = LENGTH (ram2)
                0x0000000000000000                __ram2_end__ = (__ram2_base__ + __ram2_size__)
                0x0000000000000000                __ram3_base__ = ORIGIN (ram3)
                0x0000000000000000                __ram3_size__ = LENGTH (ram3)
                0x0000000000000000                __ram3_end__ = (__ram3_base__ + __ram3_size__)
                0x0000000020040000                __ram4_base__ = ORIGIN (ram4)
                0x0000000000001000                __ram4_size__ = LENGTH (ram4)
                0x0000000020041000                __ram4_end__ = (__ram4_base__ + __ram4_size__)
                0x0000000020041000                __ram5_base__ = ORIGIN (ram5)
                0x0000000000001000                __ram5_size__ = LENGTH (ram5)
                0x0000000020042000                __ram5_end__ = (__ram5_base__ + __ram5_size__)
                0x0000000000000000                __ram6_base__ = ORIGIN (ram6)
                0x0000000000000000                __ram6_size__ = LENGTH (ram6)
                0x0000000000000000                __ram6_end__ = (__ram6_base__ + __ram6_size__)
                0x0000000020041f00                __ram7_base__ = ORIGIN (ram7)
                0x0000000000000100                __ram7_size__ = LENGTH (ram7)
                0x0000000020042000                __ram7_end__ = (__ram7_base__ + __ram7_size__)
                0x0000000000000000                __flash0_base__ = ORIGIN (flash0)
                0x0000000000004000                __flash0_size__ = LENGTH (flash0)
                0x0000000000004000                __flash0_end__ = (__flash0_base__ + __flash0_size__)
                0x0000000010000000                __flash1_base__ = ORIGIN (flash1)
                0x0000000000200000                __flash1_size__ = LENGTH (flash1)
                0x0000000010200000                __flash1_end__ = (__flash1_base__ + __flash1_size__)
                0x0000000000000000                __flash2_base__ = ORIGIN (flash2)
                0x0000000000000000                __flash2_size__ = LENGTH (flash2)
                0x0000000000000000                __flash2_end__ = (__flash2_base__ + __flash2_size__)
                0x0000000000000000                __flash3_base__ = ORIGIN (flash3)
                0x0000000000000000                __flash3_size__ = LENGTH (flash3)
                0x0000000000000000                __flash3_end__ = (__flash3_base__ + __flash3_size__)
                0x0000000000000000                __flash4_base__ = ORIGIN (flash4)
                0x0000000000000000                __flash4_size__ = LENGTH (flash4)
                0x0000000000000000                __flash4_end__ = (__flash4_base__ + __flash4_size__)
                0x0000000000000000                __flash5_base__ = ORIGIN (flash5)
                0x0000000000000000                __flash5_size__ = LENGTH (flash5)
                0x0000000000000000                __flash5_end__ = (__flash5_base__ + __flash5_size__)
                0x0000000000000000                __flash6_base__ = ORIGIN (flash6)
                0x0000000000000000                __flash6_size__ = LENGTH (flash6)
                0x0000000000000000                __flash6_end__ = (__flash6_base__ + __flash6_size__)
                0x0000000000000000                __flash7_base__ = ORIGIN (flash7)
                0x0000000000000000                __flash7_size__ = LENGTH (flash7)
                0x0000000000000000                __flash7_end__ = (__flash7_base__ + __flash7_size__)

.ram0_init      0x0000000020002ae0        0x0 load address 0x000000001000cbc4
                0x000000001000cbc4                __ram0_init_text__ = LOADADDR (.ram0_init)
                0x0000000020002ae0                __ram0_init__ = .
 *(.ram0_init)
 *(.ram0_init.*)
                0x0000000020002ae0                . = ALIGN (0x4)

.ram0           0x0000000020002ae0        0x4 load address 0x000000001000cbc4
                0x0000000020002ae0                __ram0_clear__ = .
 *(.ram0_clear)
 *(.ram0_clear.*)
                0x0000000020002ae0                . = ALIGN (0x4)
                0x0000000020002ae0                __ram0_noinit__ = .
 *(.ram0)
 *(.ram0.*)
 .ram0.bootloader_magic
                0x0000000020002ae0        0x4 /tmp/ccxW9Zd7.ltrans0.ltrans.o
                0x0000000020002ae4                . = ALIGN (0x4)
                0x0000000020002ae4                __ram0_free__ = .

.ram1_init      0x0000000000000000        0x0 load address 0x000000001000cbc4
                0x000000001000cbc4                __ram1_init_text__ = LOADADDR (.ram1_init)
                0x0000000000000000                __ram1_init__ = .
 *(.ram1_init)
 *(.ram1_init.*)
                0x0000000000000000                . = ALIGN (0x4)

.ram1           0x0000000000000000        0x0 load address 0x000000001000cbc4
                0x0000000000000000                __ram1_clear__ = .
 *(.ram1_clear)
 *(.ram1_clear.*)
                0x0000000000000000                . = ALIGN (0x4)
                0x0000000000000000                __ram1_noinit__ = .
 *(.ram1)
 *(.ram1.*)
                0x0000000000000000                . = ALIGN (0x4)
                0x0000000000000000                __ram1_free__ = .

.ram2_init      0x0000000000000000        0x0 load address 0x000000001000cbc4
                0x000000001000cbc4                __ram2_init_text__ = LOADADDR (.ram2_init)
                0x0000000000000000                __ram2_init__ = .
 *(.ram2_init)
 *(.ram2_init.*)
                0x0000000000000000                . = ALIGN (0x4)

.ram2           0x0000000000000000        0x0 load address 0x000000001000cbc4
                0x0000000000000000                __ram2_clear__ = .
 *(.ram2_clear)
 *(.ram2_clear.*)
                0x0000000000000000                . = ALIGN (0x4)
                0x0000000000000000                __ram2_noinit__ = .
 *(.ram2)
 *(.ram2.*)
                0x0000000000000000                . = ALIGN (0x4)
                0x0000000000000000                __ram2_free__ = .

.ram3_init      0x0000000000000000        0x0 load address 0x000000001000cbc4
                0x000000001000cbc4                __ram3_init_text__ = LOADADDR (.ram3_init)
                0x0000000000000000                __ram3_init__ = .
 *(.ram3_init)
 *(.ram3_init.*)
                0x0000000000000000                . = ALIGN (0x4)

.ram3           0x0000000000000000        0x0 load address 0x000000001000cbc4
                0x0000000000000000                __ram3_clear__ = .
 *(.ram3_clear)
 *(.ram3_clear.*)
                0x0000000000000000                . = ALIGN (0x4)
                0x0000000000000000                __ram3_noinit__ = .
 *(.ram3)
 *(.ram3.*)
                0x0000000000000000                . = ALIGN (0x4)
                0x0000000000000000                __ram3_free__ = .

.ram4_init      0x0000000020040c00        0x0 load address 0x000000001000cbc4
                0x000000001000cbc4                __ram4_init_text__ = LOADADDR (.ram4_init)
                0x0000000020040c00                __ram4_init__ = .
 *(.ram4_init)
 *(.ram4_init.*)
                0x0000000020040c00                . = ALIGN (0x4)

.ram4           0x0000000020040c00      0x120 load address 0x000000001000cbc4
                0x0000000020040c00                __ram4_clear__ = .
 *(.ram4_clear)
 *(.ram4_clear.*)
 .ram4_clear.core0
                0x0000000020040c00      0x120 /tmp/ccxW9Zd7.ltrans0.ltrans.o
                0x0000000020040d20                . = ALIGN (0x4)
                0x0000000020040d20                __ram4_noinit__ = .
 *(.ram4)
 *(.ram4.*)
                0x0000000020040d20                . = ALIGN (0x4)
                0x0000000020040d20                __ram4_free__ = .

.ram5_init      0x0000000020041c00        0x0 load address 0x000000001000cbc4
                0x000000001000cbc4                __ram5_init_text__ = LOADADDR (.ram5_init)
                0x0000000020041c00                __ram5_init__ = .
 *(.ram5_init)
 *(.ram5_init.*)
                0x0000000020041c00                . = ALIGN (0x4)

.ram5           0x0000000020041c00        0x0 load address 0x000000001000cbc4
                0x0000000020041c00                __ram5_clear__ = .
 *(.ram5_clear)
 *(.ram5_clear.*)
                0x0000000020041c00                . = ALIGN (0x4)
                0x0000000020041c00                __ram5_noinit__ = .
 *(.ram5)
 *(.ram5.*)
                0x0000000020041c00                . = ALIGN (0x4)
                0x0000000020041c00                __ram5_free__ = .

.ram6_init      0x0000000000000000        0x0 load address 0x000000001000cbc4
                0x000000001000cbc4                __ram6_init_text__ = LOADADDR (.ram6_init)
                0x0000000000000000                __ram6_init__ = .
 *(.ram6_init)
 *(.ram6_init.*)
                0x0000000000000000                . = ALIGN (0x4)

.ram6           0x0000000000000000        0x0 load address 0x000000001000cbc4
                0x0000000000000000                __ram6_clear__ = .
 *(.ram6_clear)
 *(.ram6_clear.*)
                0x0000000000000000                . = ALIGN (0x4)
                0x0000000000000000                __ram6_noinit__ = .
 *(.ram6)
 *(.ram6.*)
                0x0000000000000000                . = ALIGN (0x4)
                0x0000000000000000                __ram6_free__ = .

.ram7_init      0x0000000020041f00        0x0 load address 0x000000001000cbc4
                0x000000001000cbc4                __ram7_init_text__ = LOADADDR (.ram7_init)
                0x0000000020041f00                __ram7_init__ = .
 *(.ram7_init)
 *(.ram7_init.*)
                0x0000000020041f00                . = ALIGN (0x4)

.ram7           0x0000000020041f00        0x0 load address 0x000000001000cbc4
                0x0000000020041f00                __ram7_clear__ = .
 *(.ram7_clear)
 *(.ram7_clear.*)
                0x0000000020041f00                . = ALIGN (0x4)
                0x0000000020041f00                __ram7_noinit__ = .
 *(.ram7)
 *(.ram7.*)
                0x0000000020041f00                . = ALIGN (0x4)
                0x0000000020041f00                __ram7_free__ = .

.flash0         0x0000000000000000        0x0
                0x0000000000000000                __flash0_init__ = .
 *(.flash0_init)
 *(.flash0_init.*)
                0x0000000000000000                __flash0_free__ = .

.flash1         0x000000001000cbc4        0x0
                0x000000001000cbc4                __flash1_init__ = .
 *(.flash1_init)
 *(.flash1_init.*)
                0x000000001000cbc4                __flash1_free__ = .

.flash2         0x0000000000000000        0x0
                0x0000000000000000                __flash2_init__ = .
 *(.flash2_init)
 *(.flash2_init.*)
                0x0000000000000000                __flash2_free__ = .

.flash3         0x0000000000000000        0x0
                0x0000000000000000                __flash3_init__ = .
 *(.flash3_init)
 *(.flash3_init.*)
                0x0000000000000000                __flash3_free__ = .

.flash4         0x0000000000000000        0x0
                0x0000000000000000                __flash4_init__ = .
 *(.flash4_init)
 *(.flash4_init.*)
                0x0000000000000000                __flash4_free__ = .

.flash5         0x0000000000000000        0x0
                0x0000000000000000                __flash5_init__ = .
 *(.flash5_init)
 *(.flash5_init.*)
                0x0000000000000000                __flash5_free__ = .

.flash6         0x0000000000000000        0x0
                0x0000000000000000                __flash6_init__ = .
 *(.flash6_init)
 *(.flash6_init.*)
                0x0000000000000000                __flash6_free__ = .

.flash7         0x0000000000000000        0x0
                0x0000000000000000                __flash7_init__ = .
 *(.flash7_init)
 *(.flash7_init.*)
                0x0000000000000000                __flash7_free__ = .

.heap           0x0000000020002ae4    0x3d51c
                0x0000000020002ae8                . = ALIGN (0x8)
 *fill*         0x0000000020002ae4        0x4 
                0x0000000020002ae8                __heap_base__ = .
                0x0000000020040000                . = (ORIGIN (HEAP_RAM) + LENGTH (HEAP_RAM))
 *fill*         0x0000000020002ae8    0x3d518 
                0x0000000020040000                __heap_end__ = .

.flash_end      0x000000001000cbc4        0x0
                0x000000001000cbc4                __flash_binary_end = .
OUTPUT(.build/sofle_rev1_EGF2_promicro_rp2040.elf elf32-littlearm)
LOAD linker stubs

.debug_info     0x0000000000000000   0x18bf05
 .debug_info    0x0000000000000000   0x14b7ce /tmp/cc4Fj2P6debugobj
                0x0000000000000000                sofle.c.b82cdffa
                0x0000000000003743                rev1.c.a5a11332
                0x0000000000006e29                default_keyboard.c.77d42d8b
                0x000000000000a50f                keymap_introspection.c.15ae5fce
                0x0000000000010120                quantum.c.628f148c
                0x0000000000015df2                bitwise.c.d05d0eeb
                0x0000000000015fbe                led.c.c9df1f01
                0x0000000000019100                action.c.4a717163
                0x000000000001ef0a                action_layer.c.3d78c08c
                0x0000000000022807                action_tapping.c.76bc0452
                0x0000000000025641                action_util.c.4bdfedc2
                0x0000000000026649                eeconfig.c.953311b9
                0x00000000000271af                keyboard.c.c7290995
                0x000000000002ac46                keymap_common.c.8739b40d
                0x0000000000030968                keycode_config.c.b9868eb5
                0x0000000000032a77                sync_timer.c.f05a7894
                0x0000000000032bae                debug.c.d3ea5434
                0x0000000000033558                sendchar.c.0f4c0ed3
                0x00000000000335f2                print.c.ba760ce8
                0x00000000000336f2                magic.c.9de7d271
                0x00000000000369b2                matrix_common.c.2f7c72f1
                0x000000000003a6a3                matrix.c.27022d39
                0x000000000003e8ec                sym_defer_g.c.744342ae
                0x00000000000420f9                split_util.c.53cdcf44
                0x0000000000045bb4                transport.c.b311cd17
                0x0000000000049710                transactions.c.a7f952e6
                0x000000000004d558                main.c.a792bd8c
                0x000000000004d5e6                printf.c.19719944
                0x000000000004de37                mousekey.c.a52bafee
                0x0000000000050966                eeprom_driver.c.91c036b7
                0x00000000000514b2                eeprom_wear_leveling.c.47dc4d17
                0x0000000000051e51                wear_leveling.c.52d6ffe4
                0x0000000000052f17                wear_leveling_rp2040_flash.c.b95c330c
                0x0000000000053fe1                color.c.36938ce2
                0x0000000000054a60                rgblight.c.81c7d32b
                0x0000000000056a03                process_rgb.c.c3d756a7
                0x000000000005c263                ws2812_vendor.c.e3feb2a9
                0x0000000000060d4a                led_tables.c.6192a30a
                0x0000000000061681                crc.c.a2d56930
                0x0000000000061789                qmk_fnv_type_validation.c.3caef2c0
                0x0000000000062286                hash_32a.c.d97a86b0
                0x0000000000062e09                hash_64a.c.6d0ee229
                0x000000000006398c                ssd1306_sh1106.c.bef67ccf
                0x0000000000064b5f                process_magic.c.0f4b1a39
                0x000000000006a246                send_string.c.1c8b3784
                0x000000000006f5d5                encoder.c.d0522bb8
                0x0000000000073494                process_grave_esc.c.8976fcba
                0x0000000000078c24                process_space_cadet.c.11939182
                0x000000000007e3bd                process_tap_dance.c.b5731e5c
                0x0000000000082048                velocikey.c.82fe5ea5
                0x00000000000829fc                wpm.c.2d735ff5
                0x0000000000087f21                host.c.796eed58
                0x0000000000088dad                report.c.1c190d0c
                0x000000000008ba0d                usb_device_state.c.6ab0f3eb
                0x000000000008bb90                usb_util.c.cfd6d8ff
                0x000000000008f296                suspend.c.fa637a75
                0x000000000008f361                hardware_id.c.05bf9624
                0x000000000008fb04                platform.c.1ad338b9
                0x0000000000092113                suspend.c.fd971900
                0x000000000009510f                timer.c.6b66a3c4
                0x0000000000095cd3                rp2040.c.2708c23b
                0x0000000000099578                usb_main.c.814b8aa5
                0x000000000009dd40                chibios.c.ad8ed148
                0x00000000000a0ffd                usb_descriptor.c.f1e4cc85
                0x00000000000a450a                usb_driver.c.fdd9cd91
                0x00000000000a8179                usb_util.c.82cb40be
                0x00000000000aaded                chmboxes.c.4e320a17
                0x00000000000ab533                chmemcore.c.ee8ef0ef
                0x00000000000ac19b                chmemheaps.c.3914da1d
                0x00000000000ac8e1                chmempools.c.5f7da96a
                0x00000000000ad027                chpipes.c.25067677
                0x00000000000adff0                chobjcaches.c.5268f7f1
                0x00000000000ae736                chdelegates.c.7c2d10d4
                0x00000000000aee7c                chfactory.c.31d0966d
                0x00000000000afe45                crt1.c.bd4ab947
                0x00000000000b010d                chsys.c.a0f7f4ce
                0x00000000000b12c9                chrfcu.c.2684692b
                0x00000000000b1a4b                chdebug.c.49271e47
                0x00000000000b2191                chtrace.c.fc494fa3
                0x00000000000b28d7                chvt.c.5b75bbb8
                0x00000000000b4225                chschd.c.bf80d069
                0x00000000000b5209                chinstances.c.ab171431
                0x00000000000b5e05                chthreads.c.a0be63db
                0x00000000000b6fed                chtm.c.50d30e50
                0x00000000000b7733                chstats.c.7352c1b0
                0x00000000000b7e79                chregistry.c.c2184edb
                0x00000000000b8e42                chsem.c.89ea06a9
                0x00000000000b9ca2                chmtx.c.fa1cb598
                0x00000000000baa6a                chcond.c.8719f611
                0x00000000000bb1b0                chevents.c.a37d7618
                0x00000000000bc222                chmsg.c.99486e9b
                0x00000000000bc968                chdynamic.c.40fe98fc
                0x00000000000bd0ae                chcore.c.084c4227
                0x00000000000bdfda                osal.c.29975a63
                0x00000000000be720                hal.c.aa4687e2
                0x00000000000c0d38                hal_st.c.68279df3
                0x00000000000c3aa2                hal_buffers.c.e54f5ac5
                0x00000000000c743c                hal_queues.c.d97d508a
                0x00000000000cacac                hal_flash.c.998172fe
                0x00000000000cd7a0                hal_mmcsd.c.64b87718
                0x00000000000cfda7                hal_adc.c.666bc9fa
                0x00000000000d23ae                hal_can.c.9928c3ea
                0x00000000000d49b5                hal_crypto.c.eb46ffde
                0x00000000000d6fbc                hal_dac.c.e9301ad2
                0x00000000000d95c3                hal_efl.c.c4c387fe
                0x00000000000dbbca                hal_gpt.c.dad74eea
                0x00000000000de1d1                hal_i2c.c.9ba176e1
                0x00000000000e0e0b                hal_i2s.c.9e832809
                0x00000000000e3412                hal_icu.c.324aadec
                0x00000000000e5a19                hal_mac.c.eb8814da
                0x00000000000e8020                hal_mmc_spi.c.679436bd
                0x00000000000eaeaa                hal_pal.c.a798b6a4
                0x00000000000ed8d8                hal_pwm.c.2f922100
                0x00000000000efedf                hal_rtc.c.9232035e
                0x00000000000f24e6                hal_sdc.c.1b106d5c
                0x00000000000f5370                hal_serial.c.6b601c39
                0x00000000000f7977                hal_serial_usb.c.5ecde40b
                0x00000000000f9f7e                hal_sio.c.755a40d0
                0x00000000000fc585                hal_spi.c.c9d52a05
                0x00000000000ff334                hal_trng.c.ff3e8bf1
                0x000000000010193b                hal_uart.c.2e7c6fa5
                0x0000000000103f42                hal_usb.c.1e150249
                0x0000000000107db8                hal_wdg.c.7075dbbc
                0x000000000010a3bf                hal_wspi.c.8e9237e2
                0x000000000010c9c6                nvic.c.b8d99d49
                0x000000000010f236                rp_isr.c.353995f9
                0x000000000011184d                hal_lld.c.88716e66
                0x0000000000113f63                rp_dma.c.a9f57b9b
                0x0000000000116d17                hal_pal_lld.c.fcd2767f
                0x000000000011937d                hal_spi_lld.c.2ed345ef
                0x000000000011c1b9                hal_st_lld.c.dc21891f
                0x000000000011f08f                hal_sio_lld.c.c7812b08
                0x0000000000121696                hal_rtc_lld.c.af65193f
                0x0000000000123c9d                hal_wdg_lld.c.3f5f0112
                0x00000000001262a4                hal_i2c_lld.c.586152fa
                0x000000000012928a                hal_pwm_lld.c.5f662231
                0x000000000012b891                hal_adc_lld.c.36a3994b
                0x000000000012de98                hal_usb_lld.c.618e7db4
                0x0000000000131ee9                board.c.3f2b8c3e
                0x0000000000134500                chprintf.c.585cda5a
                0x0000000000136f6f                chscanf.c.14d29b74
                0x0000000000139968                memstreams.c.12da87a0
                0x000000000013cacd                nullstreams.c.06b2e433
                0x000000000013f311                bufstreams.c.bc2c9564
                0x00000000001424f2                syscalls.c.a2ee67e0
                0x0000000000143978                syscall_fallbacks.c.a895b4d0
                0x0000000000144803                wait.c.8557c778
                0x0000000000146e0a                synchronization_util.c.4247ee4f
                0x000000000014756c                clocks.c.9d6b24e3
                0x0000000000147c5c                pll.c.aa366220
                0x0000000000147ece                pio.c.e0653abf
                0x0000000000148c96                flash.c.875034b5
                0x0000000000149359                gpio.c.a32823bd
                0x0000000000149eb8                claim.c.8a9fc494
                0x000000000014a1aa                watchdog.c.90af1ddb
                0x000000000014acf5                xosc.c.cecd8e24
                0x000000000014ae51                bootrom.c.a4a38836
                0x000000000014afde                stage2_bootloaders.c.65a41bdf
                0x000000000014b06a                pico_sdk_shims.c.9bdbc80b
 .debug_info    0x000000000014b7ce    0x16cf3 /tmp/ccxW9Zd7.ltrans0.ltrans.o
 .debug_info    0x00000000001624c1     0x3e5a .build/obj_sofle_rev1_EGF2/serial_protocol.a(serial_protocol.o)
 .debug_info    0x000000000016631b     0x64dd .build/obj_sofle_rev1_EGF2/serial_vendor.a(serial_vendor.o)
 .debug_info    0x000000000016c7f8     0x4527 .build/obj_sofle_rev1_EGF2/i2c_master.a(i2c_master.o)
 .debug_info    0x0000000000170d1f       0x26 /usr/lib/gcc/arm-none-eabi/8.3.1/thumb/v6-m/nofp/libgcc.a(_dvmd_tls.o)
 .debug_info    0x0000000000170d45      0xa17 /usr/lib/gcc/arm-none-eabi/8.3.1/thumb/v6-m/nofp/libgcc.a(_fixunssfsi.o)
 .debug_info    0x000000000017175c      0x38b /usr/lib/gcc/arm-none-eabi/8.3.1/thumb/v6-m/nofp/libgcc.a(divsf3.o)
 .debug_info    0x0000000000171ae7      0x414 /usr/lib/gcc/arm-none-eabi/8.3.1/thumb/v6-m/nofp/libgcc.a(mulsf3.o)
 .debug_info    0x0000000000171efb      0x38d /usr/lib/gcc/arm-none-eabi/8.3.1/thumb/v6-m/nofp/libgcc.a(subsf3.o)
 .debug_info    0x0000000000172288      0x203 /usr/lib/gcc/arm-none-eabi/8.3.1/thumb/v6-m/nofp/libgcc.a(fixsfsi.o)
 .debug_info    0x000000000017248b      0x264 /usr/lib/gcc/arm-none-eabi/8.3.1/thumb/v6-m/nofp/libgcc.a(floatunsisf.o)
 .debug_info    0x00000000001726ef       0x26 /usr/lib/gcc/arm-none-eabi/8.3.1/thumb/v6-m/nofp/libgcc.a(_arm_cmpsf2.o)
 .debug_info    0x0000000000172715       0x26 /usr/lib/gcc/arm-none-eabi/8.3.1/thumb/v6-m/nofp/libgcc.a(_clzsi2.o)
 .debug_info    0x000000000017273b      0x267 /usr/lib/gcc/arm-none-eabi/8.3.1/thumb/v6-m/nofp/libgcc.a(eqsf2.o)
 .debug_info    0x00000000001729a2      0x27d /usr/lib/gcc/arm-none-eabi/8.3.1/thumb/v6-m/nofp/libgcc.a(gesf2.o)
 .debug_info    0x0000000000172c1f      0x27d /usr/lib/gcc/arm-none-eabi/8.3.1/thumb/v6-m/nofp/libgcc.a(lesf2.o)
 .debug_info    0x0000000000172e9c       0x26 /usr/lib/gcc/arm-none-eabi/8.3.1/thumb/v6-m/nofp/libgcc.a(_thumb1_case_uqi.o)
 .debug_info    0x0000000000172ec2       0x26 /usr/lib/gcc/arm-none-eabi/8.3.1/thumb/v6-m/nofp/libgcc.a(_thumb1_case_shi.o)
 .debug_info    0x0000000000172ee8       0x26 /usr/lib/gcc/arm-none-eabi/8.3.1/thumb/v6-m/nofp/libgcc.a(_thumb1_case_uhi.o)
 .debug_info    0x0000000000172f0e       0x26 /usr/lib/gcc/arm-none-eabi/8.3.1/thumb/v6-m/nofp/libgcc.a(_ctzsi2.o)
 .debug_info    0x0000000000172f34      0x271 /usr/lib/gcc/arm-none-eabi/8.3.1/thumb/v6-m/nofp/libgcc.a(floatsisf.o)
 .debug_info    0x00000000001731a5      0xe91 /usr/lib/gcc/arm-none-eabi/8.3.1/../../../arm-none-eabi/lib/thumb/v6-m/nofp/libg_nano.a(lib_a-ctype_.o)
 .debug_info    0x0000000000174036      0x92a /usr/lib/gcc/arm-none-eabi/8.3.1/../../../arm-none-eabi/lib/thumb/v6-m/nofp/libg_nano.a(lib_a-impure.o)
 .debug_info    0x0000000000174960      0xf35 /usr/lib/gcc/arm-none-eabi/8.3.1/../../../arm-none-eabi/lib/thumb/v6-m/nofp/libg_nano.a(lib_a-memcpy-stub.o)
 .debug_info    0x0000000000175895      0xa7a /usr/lib/gcc/arm-none-eabi/8.3.1/../../../arm-none-eabi/lib/thumb/v6-m/nofp/libg_nano.a(lib_a-rand.o)
 .debug_info    0x000000000017630f      0xa41 /usr/lib/gcc/arm-none-eabi/8.3.1/../../../arm-none-eabi/lib/thumb/v6-m/nofp/libg_nano.a(lib_a-assert.o)
 .debug_info    0x0000000000176d50      0xa7a /usr/lib/gcc/arm-none-eabi/8.3.1/../../../arm-none-eabi/lib/thumb/v6-m/nofp/libg_nano.a(lib_a-fprintf.o)
 .debug_info    0x00000000001777ca      0x9b6 /usr/lib/gcc/arm-none-eabi/8.3.1/../../../arm-none-eabi/lib/thumb/v6-m/nofp/libg_nano.a(lib_a-malloc.o)
 .debug_info    0x0000000000178180      0xb82 /usr/lib/gcc/arm-none-eabi/8.3.1/../../../arm-none-eabi/lib/thumb/v6-m/nofp/libg_nano.a(lib_a-nano-freer.o)
 .debug_info    0x0000000000178d02      0xc57 /usr/lib/gcc/arm-none-eabi/8.3.1/../../../arm-none-eabi/lib/thumb/v6-m/nofp/libg_nano.a(lib_a-nano-mallocr.o)
 .debug_info    0x0000000000179959     0x1793 /usr/lib/gcc/arm-none-eabi/8.3.1/../../../arm-none-eabi/lib/thumb/v6-m/nofp/libg_nano.a(lib_a-nano-vfprintf.o)
 .debug_info    0x000000000017b0ec     0x158d /usr/lib/gcc/arm-none-eabi/8.3.1/../../../arm-none-eabi/lib/thumb/v6-m/nofp/libg_nano.a(lib_a-nano-vfprintf_i.o)
 .debug_info    0x000000000017c679      0xc90 /usr/lib/gcc/arm-none-eabi/8.3.1/../../../arm-none-eabi/lib/thumb/v6-m/nofp/libg_nano.a(lib_a-wbuf.o)
 .debug_info    0x000000000017d309      0xbfa /usr/lib/gcc/arm-none-eabi/8.3.1/../../../arm-none-eabi/lib/thumb/v6-m/nofp/libg_nano.a(lib_a-wsetup.o)
 .debug_info    0x000000000017df03      0x9b5 /usr/lib/gcc/arm-none-eabi/8.3.1/../../../arm-none-eabi/lib/thumb/v6-m/nofp/libg_nano.a(lib_a-abort.o)
 .debug_info    0x000000000017e8b8      0xd85 /usr/lib/gcc/arm-none-eabi/8.3.1/../../../arm-none-eabi/lib/thumb/v6-m/nofp/libg_nano.a(lib_a-fflush.o)
 .debug_info    0x000000000017f63d     0x11a8 /usr/lib/gcc/arm-none-eabi/8.3.1/../../../arm-none-eabi/lib/thumb/v6-m/nofp/libg_nano.a(lib_a-findfp.o)
 .debug_info    0x00000000001807e5      0xf11 /usr/lib/gcc/arm-none-eabi/8.3.1/../../../arm-none-eabi/lib/thumb/v6-m/nofp/libg_nano.a(lib_a-fvwrite.o)
 .debug_info    0x00000000001816f6      0xca4 /usr/lib/gcc/arm-none-eabi/8.3.1/../../../arm-none-eabi/lib/thumb/v6-m/nofp/libg_nano.a(lib_a-fwalk.o)
 .debug_info    0x000000000018239a      0xf64 /usr/lib/gcc/arm-none-eabi/8.3.1/../../../arm-none-eabi/lib/thumb/v6-m/nofp/libg_nano.a(lib_a-makebuf.o)
 .debug_info    0x00000000001832fe      0x9e3 /usr/lib/gcc/arm-none-eabi/8.3.1/../../../arm-none-eabi/lib/thumb/v6-m/nofp/libg_nano.a(lib_a-memchr-stub.o)
 .debug_info    0x0000000000183ce1      0xf2b /usr/lib/gcc/arm-none-eabi/8.3.1/../../../arm-none-eabi/lib/thumb/v6-m/nofp/libg_nano.a(lib_a-memmove.o)
 .debug_info    0x0000000000184c0c      0xf21 /usr/lib/gcc/arm-none-eabi/8.3.1/../../../arm-none-eabi/lib/thumb/v6-m/nofp/libg_nano.a(lib_a-memset.o)
 .debug_info    0x0000000000185b2d      0x961 /usr/lib/gcc/arm-none-eabi/8.3.1/../../../arm-none-eabi/lib/thumb/v6-m/nofp/libg_nano.a(lib_a-mlock.o)
 .debug_info    0x000000000018648e      0xb76 /usr/lib/gcc/arm-none-eabi/8.3.1/../../../arm-none-eabi/lib/thumb/v6-m/nofp/libg_nano.a(lib_a-nano-reallocr.o)
 .debug_info    0x0000000000187004      0xd62 /usr/lib/gcc/arm-none-eabi/8.3.1/../../../arm-none-eabi/lib/thumb/v6-m/nofp/libg_nano.a(lib_a-signal.o)
 .debug_info    0x0000000000187d66      0xa4c /usr/lib/gcc/arm-none-eabi/8.3.1/../../../arm-none-eabi/lib/thumb/v6-m/nofp/libg_nano.a(lib_a-signalr.o)
 .debug_info    0x00000000001887b2      0xe6c /usr/lib/gcc/arm-none-eabi/8.3.1/../../../arm-none-eabi/lib/thumb/v6-m/nofp/libg_nano.a(lib_a-stdio.o)
 .debug_info    0x000000000018961e      0xaa6 /usr/lib/gcc/arm-none-eabi/8.3.1/../../../arm-none-eabi/lib/thumb/v6-m/nofp/libg_nano.a(lib_a-nano-msizer.o)
 .debug_info    0x000000000018a0c4      0xb0c /usr/lib/gcc/arm-none-eabi/8.3.1/../../../arm-none-eabi/lib/thumb/v6-m/nofp/libg_nano.a(lib_a-reent.o)
 .debug_info    0x000000000018abd0      0x9c2 /usr/lib/gcc/arm-none-eabi/8.3.1/../../../arm-none-eabi/lib/thumb/v6-m/nofp/libg_nano.a(lib_a-memcmp.o)
 .debug_info    0x000000000018b592      0x973 /usr/lib/gcc/arm-none-eabi/8.3.1/../../../arm-none-eabi/lib/thumb/v6-m/nofp/libg_nano.a(lib_a-strlen-stub.o)

.debug_abbrev   0x0000000000000000    0x1e12a
 .debug_abbrev  0x0000000000000000    0x1775a /tmp/cc4Fj2P6debugobj
 .debug_abbrev  0x000000000001775a      0x3ac /tmp/ccxW9Zd7.ltrans0.ltrans.o
 .debug_abbrev  0x0000000000017b06      0x4c7 .build/obj_sofle_rev1_EGF2/serial_protocol.a(serial_protocol.o)
 .debug_abbrev  0x0000000000017fcd      0x742 .build/obj_sofle_rev1_EGF2/serial_vendor.a(serial_vendor.o)
 .debug_abbrev  0x000000000001870f      0x484 .build/obj_sofle_rev1_EGF2/i2c_master.a(i2c_master.o)
 .debug_abbrev  0x0000000000018b93       0x14 /usr/lib/gcc/arm-none-eabi/8.3.1/thumb/v6-m/nofp/libgcc.a(_dvmd_tls.o)
 .debug_abbrev  0x0000000000018ba7      0x13b /usr/lib/gcc/arm-none-eabi/8.3.1/thumb/v6-m/nofp/libgcc.a(_fixunssfsi.o)
 .debug_abbrev  0x0000000000018ce2      0x192 /usr/lib/gcc/arm-none-eabi/8.3.1/thumb/v6-m/nofp/libgcc.a(divsf3.o)
 .debug_abbrev  0x0000000000018e74      0x192 /usr/lib/gcc/arm-none-eabi/8.3.1/thumb/v6-m/nofp/libgcc.a(mulsf3.o)
 .debug_abbrev  0x0000000000019006      0x1a3 /usr/lib/gcc/arm-none-eabi/8.3.1/thumb/v6-m/nofp/libgcc.a(subsf3.o)
 .debug_abbrev  0x00000000000191a9      0x184 /usr/lib/gcc/arm-none-eabi/8.3.1/thumb/v6-m/nofp/libgcc.a(fixsfsi.o)
 .debug_abbrev  0x000000000001932d      0x1a1 /usr/lib/gcc/arm-none-eabi/8.3.1/thumb/v6-m/nofp/libgcc.a(floatunsisf.o)
 .debug_abbrev  0x00000000000194ce       0x14 /usr/lib/gcc/arm-none-eabi/8.3.1/thumb/v6-m/nofp/libgcc.a(_arm_cmpsf2.o)
 .debug_abbrev  0x00000000000194e2       0x14 /usr/lib/gcc/arm-none-eabi/8.3.1/thumb/v6-m/nofp/libgcc.a(_clzsi2.o)
 .debug_abbrev  0x00000000000194f6      0x17b /usr/lib/gcc/arm-none-eabi/8.3.1/thumb/v6-m/nofp/libgcc.a(eqsf2.o)
 .debug_abbrev  0x0000000000019671      0x191 /usr/lib/gcc/arm-none-eabi/8.3.1/thumb/v6-m/nofp/libgcc.a(gesf2.o)
 .debug_abbrev  0x0000000000019802      0x191 /usr/lib/gcc/arm-none-eabi/8.3.1/thumb/v6-m/nofp/libgcc.a(lesf2.o)
 .debug_abbrev  0x0000000000019993       0x14 /usr/lib/gcc/arm-none-eabi/8.3.1/thumb/v6-m/nofp/libgcc.a(_thumb1_case_uqi.o)
 .debug_abbrev  0x00000000000199a7       0x14 /usr/lib/gcc/arm-none-eabi/8.3.1/thumb/v6-m/nofp/libgcc.a(_thumb1_case_shi.o)
 .debug_abbrev  0x00000000000199bb       0x14 /usr/lib/gcc/arm-none-eabi/8.3.1/thumb/v6-m/nofp/libgcc.a(_thumb1_case_uhi.o)
 .debug_abbrev  0x00000000000199cf       0x14 /usr/lib/gcc/arm-none-eabi/8.3.1/thumb/v6-m/nofp/libgcc.a(_ctzsi2.o)
 .debug_abbrev  0x00000000000199e3      0x1a1 /usr/lib/gcc/arm-none-eabi/8.3.1/thumb/v6-m/nofp/libgcc.a(floatsisf.o)
 .debug_abbrev  0x0000000000019b84      0x178 /usr/lib/gcc/arm-none-eabi/8.3.1/../../../arm-none-eabi/lib/thumb/v6-m/nofp/libg_nano.a(lib_a-ctype_.o)
 .debug_abbrev  0x0000000000019cfc      0x17a /usr/lib/gcc/arm-none-eabi/8.3.1/../../../arm-none-eabi/lib/thumb/v6-m/nofp/libg_nano.a(lib_a-impure.o)
 .debug_abbrev  0x0000000000019e76      0x1e5 /usr/lib/gcc/arm-none-eabi/8.3.1/../../../arm-none-eabi/lib/thumb/v6-m/nofp/libg_nano.a(lib_a-memcpy-stub.o)
 .debug_abbrev  0x000000000001a05b      0x241 /usr/lib/gcc/arm-none-eabi/8.3.1/../../../arm-none-eabi/lib/thumb/v6-m/nofp/libg_nano.a(lib_a-rand.o)
 .debug_abbrev  0x000000000001a29c      0x1ff /usr/lib/gcc/arm-none-eabi/8.3.1/../../../arm-none-eabi/lib/thumb/v6-m/nofp/libg_nano.a(lib_a-assert.o)
 .debug_abbrev  0x000000000001a49b      0x23c /usr/lib/gcc/arm-none-eabi/8.3.1/../../../arm-none-eabi/lib/thumb/v6-m/nofp/libg_nano.a(lib_a-fprintf.o)
 .debug_abbrev  0x000000000001a6d7      0x1ef /usr/lib/gcc/arm-none-eabi/8.3.1/../../../arm-none-eabi/lib/thumb/v6-m/nofp/libg_nano.a(lib_a-malloc.o)
 .debug_abbrev  0x000000000001a8c6      0x273 /usr/lib/gcc/arm-none-eabi/8.3.1/../../../arm-none-eabi/lib/thumb/v6-m/nofp/libg_nano.a(lib_a-nano-freer.o)
 .debug_abbrev  0x000000000001ab39      0x2d8 /usr/lib/gcc/arm-none-eabi/8.3.1/../../../arm-none-eabi/lib/thumb/v6-m/nofp/libg_nano.a(lib_a-nano-mallocr.o)
 .debug_abbrev  0x000000000001ae11      0x31b /usr/lib/gcc/arm-none-eabi/8.3.1/../../../arm-none-eabi/lib/thumb/v6-m/nofp/libg_nano.a(lib_a-nano-vfprintf.o)
 .debug_abbrev  0x000000000001b12c      0x30b /usr/lib/gcc/arm-none-eabi/8.3.1/../../../arm-none-eabi/lib/thumb/v6-m/nofp/libg_nano.a(lib_a-nano-vfprintf_i.o)
 .debug_abbrev  0x000000000001b437      0x277 /usr/lib/gcc/arm-none-eabi/8.3.1/../../../arm-none-eabi/lib/thumb/v6-m/nofp/libg_nano.a(lib_a-wbuf.o)
 .debug_abbrev  0x000000000001b6ae      0x23a /usr/lib/gcc/arm-none-eabi/8.3.1/../../../arm-none-eabi/lib/thumb/v6-m/nofp/libg_nano.a(lib_a-wsetup.o)
 .debug_abbrev  0x000000000001b8e8      0x1cd /usr/lib/gcc/arm-none-eabi/8.3.1/../../../arm-none-eabi/lib/thumb/v6-m/nofp/libg_nano.a(lib_a-abort.o)
 .debug_abbrev  0x000000000001bab5      0x2c4 /usr/lib/gcc/arm-none-eabi/8.3.1/../../../arm-none-eabi/lib/thumb/v6-m/nofp/libg_nano.a(lib_a-fflush.o)
 .debug_abbrev  0x000000000001bd79      0x3cb /usr/lib/gcc/arm-none-eabi/8.3.1/../../../arm-none-eabi/lib/thumb/v6-m/nofp/libg_nano.a(lib_a-findfp.o)
 .debug_abbrev  0x000000000001c144      0x27b /usr/lib/gcc/arm-none-eabi/8.3.1/../../../arm-none-eabi/lib/thumb/v6-m/nofp/libg_nano.a(lib_a-fvwrite.o)
 .debug_abbrev  0x000000000001c3bf      0x210 /usr/lib/gcc/arm-none-eabi/8.3.1/../../../arm-none-eabi/lib/thumb/v6-m/nofp/libg_nano.a(lib_a-fwalk.o)
 .debug_abbrev  0x000000000001c5cf      0x2fa /usr/lib/gcc/arm-none-eabi/8.3.1/../../../arm-none-eabi/lib/thumb/v6-m/nofp/libg_nano.a(lib_a-makebuf.o)
 .debug_abbrev  0x000000000001c8c9      0x1d7 /usr/lib/gcc/arm-none-eabi/8.3.1/../../../arm-none-eabi/lib/thumb/v6-m/nofp/libg_nano.a(lib_a-memchr-stub.o)
 .debug_abbrev  0x000000000001caa0      0x1de /usr/lib/gcc/arm-none-eabi/8.3.1/../../../arm-none-eabi/lib/thumb/v6-m/nofp/libg_nano.a(lib_a-memmove.o)
 .debug_abbrev  0x000000000001cc7e      0x1d9 /usr/lib/gcc/arm-none-eabi/8.3.1/../../../arm-none-eabi/lib/thumb/v6-m/nofp/libg_nano.a(lib_a-memset.o)
 .debug_abbrev  0x000000000001ce57      0x1c5 /usr/lib/gcc/arm-none-eabi/8.3.1/../../../arm-none-eabi/lib/thumb/v6-m/nofp/libg_nano.a(lib_a-mlock.o)
 .debug_abbrev  0x000000000001d01c      0x227 /usr/lib/gcc/arm-none-eabi/8.3.1/../../../arm-none-eabi/lib/thumb/v6-m/nofp/libg_nano.a(lib_a-nano-reallocr.o)
 .debug_abbrev  0x000000000001d243      0x2fb /usr/lib/gcc/arm-none-eabi/8.3.1/../../../arm-none-eabi/lib/thumb/v6-m/nofp/libg_nano.a(lib_a-signal.o)
 .debug_abbrev  0x000000000001d53e      0x205 /usr/lib/gcc/arm-none-eabi/8.3.1/../../../arm-none-eabi/lib/thumb/v6-m/nofp/libg_nano.a(lib_a-signalr.o)
 .debug_abbrev  0x000000000001d743      0x24f /usr/lib/gcc/arm-none-eabi/8.3.1/../../../arm-none-eabi/lib/thumb/v6-m/nofp/libg_nano.a(lib_a-stdio.o)
 .debug_abbrev  0x000000000001d992      0x1e5 /usr/lib/gcc/arm-none-eabi/8.3.1/../../../arm-none-eabi/lib/thumb/v6-m/nofp/libg_nano.a(lib_a-nano-msizer.o)
 .debug_abbrev  0x000000000001db77      0x25a /usr/lib/gcc/arm-none-eabi/8.3.1/../../../arm-none-eabi/lib/thumb/v6-m/nofp/libg_nano.a(lib_a-reent.o)
 .debug_abbrev  0x000000000001ddd1      0x1af /usr/lib/gcc/arm-none-eabi/8.3.1/../../../arm-none-eabi/lib/thumb/v6-m/nofp/libg_nano.a(lib_a-memcmp.o)
 .debug_abbrev  0x000000000001df80      0x1aa /usr/lib/gcc/arm-none-eabi/8.3.1/../../../arm-none-eabi/lib/thumb/v6-m/nofp/libg_nano.a(lib_a-strlen-stub.o)

.debug_line     0x0000000000000000    0x367cf
 .debug_line    0x0000000000000000    0x1d246 /tmp/cc4Fj2P6debugobj
 .debug_line    0x000000000001d246     0xf6f1 /tmp/ccxW9Zd7.ltrans0.ltrans.o
 .debug_line    0x000000000002c937      0x843 .build/obj_sofle_rev1_EGF2/serial_protocol.a(serial_protocol.o)
 .debug_line    0x000000000002d17a     0x19a3 .build/obj_sofle_rev1_EGF2/serial_vendor.a(serial_vendor.o)
 .debug_line    0x000000000002eb1d      0x9d0 .build/obj_sofle_rev1_EGF2/i2c_master.a(i2c_master.o)
 .debug_line    0x000000000002f4ed       0x60 /usr/lib/gcc/arm-none-eabi/8.3.1/thumb/v6-m/nofp/libgcc.a(_dvmd_tls.o)
 .debug_line    0x000000000002f54d      0x138 /usr/lib/gcc/arm-none-eabi/8.3.1/thumb/v6-m/nofp/libgcc.a(_fixunssfsi.o)
 .debug_line    0x000000000002f685      0x468 /usr/lib/gcc/arm-none-eabi/8.3.1/thumb/v6-m/nofp/libgcc.a(divsf3.o)
 .debug_line    0x000000000002faed      0x46d /usr/lib/gcc/arm-none-eabi/8.3.1/thumb/v6-m/nofp/libgcc.a(mulsf3.o)
 .debug_line    0x000000000002ff5a      0x6da /usr/lib/gcc/arm-none-eabi/8.3.1/thumb/v6-m/nofp/libgcc.a(subsf3.o)
 .debug_line    0x0000000000030634      0x128 /usr/lib/gcc/arm-none-eabi/8.3.1/thumb/v6-m/nofp/libgcc.a(fixsfsi.o)
 .debug_line    0x000000000003075c      0x1e1 /usr/lib/gcc/arm-none-eabi/8.3.1/thumb/v6-m/nofp/libgcc.a(floatunsisf.o)
 .debug_line    0x000000000003093d       0x75 /usr/lib/gcc/arm-none-eabi/8.3.1/thumb/v6-m/nofp/libgcc.a(_arm_cmpsf2.o)
 .debug_line    0x00000000000309b2       0x74 /usr/lib/gcc/arm-none-eabi/8.3.1/thumb/v6-m/nofp/libgcc.a(_clzsi2.o)
 .debug_line    0x0000000000030a26      0x141 /usr/lib/gcc/arm-none-eabi/8.3.1/thumb/v6-m/nofp/libgcc.a(eqsf2.o)
 .debug_line    0x0000000000030b67      0x18c /usr/lib/gcc/arm-none-eabi/8.3.1/thumb/v6-m/nofp/libgcc.a(gesf2.o)
 .debug_line    0x0000000000030cf3      0x184 /usr/lib/gcc/arm-none-eabi/8.3.1/thumb/v6-m/nofp/libgcc.a(lesf2.o)
 .debug_line    0x0000000000030e77       0x68 /usr/lib/gcc/arm-none-eabi/8.3.1/thumb/v6-m/nofp/libgcc.a(_thumb1_case_uqi.o)
 .debug_line    0x0000000000030edf       0x69 /usr/lib/gcc/arm-none-eabi/8.3.1/thumb/v6-m/nofp/libgcc.a(_thumb1_case_shi.o)
 .debug_line    0x0000000000030f48       0x69 /usr/lib/gcc/arm-none-eabi/8.3.1/thumb/v6-m/nofp/libgcc.a(_thumb1_case_uhi.o)
 .debug_line    0x0000000000030fb1       0x76 /usr/lib/gcc/arm-none-eabi/8.3.1/thumb/v6-m/nofp/libgcc.a(_ctzsi2.o)
 .debug_line    0x0000000000031027      0x1e5 /usr/lib/gcc/arm-none-eabi/8.3.1/thumb/v6-m/nofp/libgcc.a(floatsisf.o)
 .debug_line    0x000000000003120c      0x154 /usr/lib/gcc/arm-none-eabi/8.3.1/../../../arm-none-eabi/lib/thumb/v6-m/nofp/libg_nano.a(lib_a-ctype_.o)
 .debug_line    0x0000000000031360       0xe3 /usr/lib/gcc/arm-none-eabi/8.3.1/../../../arm-none-eabi/lib/thumb/v6-m/nofp/libg_nano.a(lib_a-impure.o)
 .debug_line    0x0000000000031443      0x24d /usr/lib/gcc/arm-none-eabi/8.3.1/../../../arm-none-eabi/lib/thumb/v6-m/nofp/libg_nano.a(lib_a-memcpy-stub.o)
 .debug_line    0x0000000000031690      0x221 /usr/lib/gcc/arm-none-eabi/8.3.1/../../../arm-none-eabi/lib/thumb/v6-m/nofp/libg_nano.a(lib_a-rand.o)
 .debug_line    0x00000000000318b1      0x18a /usr/lib/gcc/arm-none-eabi/8.3.1/../../../arm-none-eabi/lib/thumb/v6-m/nofp/libg_nano.a(lib_a-assert.o)
 .debug_line    0x0000000000031a3b      0x195 /usr/lib/gcc/arm-none-eabi/8.3.1/../../../arm-none-eabi/lib/thumb/v6-m/nofp/libg_nano.a(lib_a-fprintf.o)
 .debug_line    0x0000000000031bd0      0x16e /usr/lib/gcc/arm-none-eabi/8.3.1/../../../arm-none-eabi/lib/thumb/v6-m/nofp/libg_nano.a(lib_a-malloc.o)
 .debug_line    0x0000000000031d3e      0x2ab /usr/lib/gcc/arm-none-eabi/8.3.1/../../../arm-none-eabi/lib/thumb/v6-m/nofp/libg_nano.a(lib_a-nano-freer.o)
 .debug_line    0x0000000000031fe9      0x2f2 /usr/lib/gcc/arm-none-eabi/8.3.1/../../../arm-none-eabi/lib/thumb/v6-m/nofp/libg_nano.a(lib_a-nano-mallocr.o)
 .debug_line    0x00000000000322db      0x72c /usr/lib/gcc/arm-none-eabi/8.3.1/../../../arm-none-eabi/lib/thumb/v6-m/nofp/libg_nano.a(lib_a-nano-vfprintf.o)
 .debug_line    0x0000000000032a07      0x7a6 /usr/lib/gcc/arm-none-eabi/8.3.1/../../../arm-none-eabi/lib/thumb/v6-m/nofp/libg_nano.a(lib_a-nano-vfprintf_i.o)
 .debug_line    0x00000000000331ad      0x2cf /usr/lib/gcc/arm-none-eabi/8.3.1/../../../arm-none-eabi/lib/thumb/v6-m/nofp/libg_nano.a(lib_a-wbuf.o)
 .debug_line    0x000000000003347c      0x33d /usr/lib/gcc/arm-none-eabi/8.3.1/../../../arm-none-eabi/lib/thumb/v6-m/nofp/libg_nano.a(lib_a-wsetup.o)
 .debug_line    0x00000000000337b9      0x15f /usr/lib/gcc/arm-none-eabi/8.3.1/../../../arm-none-eabi/lib/thumb/v6-m/nofp/libg_nano.a(lib_a-abort.o)
 .debug_line    0x0000000000033918      0x44b /usr/lib/gcc/arm-none-eabi/8.3.1/../../../arm-none-eabi/lib/thumb/v6-m/nofp/libg_nano.a(lib_a-fflush.o)
 .debug_line    0x0000000000033d63      0x5c8 /usr/lib/gcc/arm-none-eabi/8.3.1/../../../arm-none-eabi/lib/thumb/v6-m/nofp/libg_nano.a(lib_a-findfp.o)
 .debug_line    0x000000000003432b      0x639 /usr/lib/gcc/arm-none-eabi/8.3.1/../../../arm-none-eabi/lib/thumb/v6-m/nofp/libg_nano.a(lib_a-fvwrite.o)
 .debug_line    0x0000000000034964      0x236 /usr/lib/gcc/arm-none-eabi/8.3.1/../../../arm-none-eabi/lib/thumb/v6-m/nofp/libg_nano.a(lib_a-fwalk.o)
 .debug_line    0x0000000000034b9a      0x32c /usr/lib/gcc/arm-none-eabi/8.3.1/../../../arm-none-eabi/lib/thumb/v6-m/nofp/libg_nano.a(lib_a-makebuf.o)
 .debug_line    0x0000000000034ec6      0x212 /usr/lib/gcc/arm-none-eabi/8.3.1/../../../arm-none-eabi/lib/thumb/v6-m/nofp/libg_nano.a(lib_a-memchr-stub.o)
 .debug_line    0x00000000000350d8      0x28a /usr/lib/gcc/arm-none-eabi/8.3.1/../../../arm-none-eabi/lib/thumb/v6-m/nofp/libg_nano.a(lib_a-memmove.o)
 .debug_line    0x0000000000035362      0x281 /usr/lib/gcc/arm-none-eabi/8.3.1/../../../arm-none-eabi/lib/thumb/v6-m/nofp/libg_nano.a(lib_a-memset.o)
 .debug_line    0x00000000000355e3      0x13d /usr/lib/gcc/arm-none-eabi/8.3.1/../../../arm-none-eabi/lib/thumb/v6-m/nofp/libg_nano.a(lib_a-mlock.o)
 .debug_line    0x0000000000035720      0x1b5 /usr/lib/gcc/arm-none-eabi/8.3.1/../../../arm-none-eabi/lib/thumb/v6-m/nofp/libg_nano.a(lib_a-nano-reallocr.o)
 .debug_line    0x00000000000358d5      0x3ab /usr/lib/gcc/arm-none-eabi/8.3.1/../../../arm-none-eabi/lib/thumb/v6-m/nofp/libg_nano.a(lib_a-signal.o)
 .debug_line    0x0000000000035c80      0x1ab /usr/lib/gcc/arm-none-eabi/8.3.1/../../../arm-none-eabi/lib/thumb/v6-m/nofp/libg_nano.a(lib_a-signalr.o)
 .debug_line    0x0000000000035e2b      0x253 /usr/lib/gcc/arm-none-eabi/8.3.1/../../../arm-none-eabi/lib/thumb/v6-m/nofp/libg_nano.a(lib_a-stdio.o)
 .debug_line    0x000000000003607e      0x168 /usr/lib/gcc/arm-none-eabi/8.3.1/../../../arm-none-eabi/lib/thumb/v6-m/nofp/libg_nano.a(lib_a-nano-msizer.o)
 .debug_line    0x00000000000361e6      0x264 /usr/lib/gcc/arm-none-eabi/8.3.1/../../../arm-none-eabi/lib/thumb/v6-m/nofp/libg_nano.a(lib_a-reent.o)
 .debug_line    0x000000000003644a      0x1c3 /usr/lib/gcc/arm-none-eabi/8.3.1/../../../arm-none-eabi/lib/thumb/v6-m/nofp/libg_nano.a(lib_a-memcmp.o)
 .debug_line    0x000000000003660d      0x1c2 /usr/lib/gcc/arm-none-eabi/8.3.1/../../../arm-none-eabi/lib/thumb/v6-m/nofp/libg_nano.a(lib_a-strlen-stub.o)

.debug_str      0x0000000000000000    0x1414e
 .debug_str     0x0000000000000000     0xe97d /tmp/cc4Fj2P6debugobj
                                      0xc6311 (size before relaxing)
 .debug_str     0x000000000000e97d      0x18b /tmp/ccxW9Zd7.ltrans0.ltrans.o
                                        0x1ce (size before relaxing)
 .debug_str     0x000000000000eb08     0x1bc9 .build/obj_sofle_rev1_EGF2/serial_protocol.a(serial_protocol.o)
                                       0x1fed (size before relaxing)
 .debug_str     0x00000000000106d1      0xc69 .build/obj_sofle_rev1_EGF2/serial_vendor.a(serial_vendor.o)
                                       0x2ad7 (size before relaxing)
 .debug_str     0x000000000001133a      0x14e .build/obj_sofle_rev1_EGF2/i2c_master.a(i2c_master.o)
                                       0x1e98 (size before relaxing)
 .debug_str     0x0000000000011488       0xa3 /usr/lib/gcc/arm-none-eabi/8.3.1/thumb/v6-m/nofp/libgcc.a(_dvmd_tls.o)
 .debug_str     0x000000000001152b     0x1335 /usr/lib/gcc/arm-none-eabi/8.3.1/thumb/v6-m/nofp/libgcc.a(_fixunssfsi.o)
                                       0x142f (size before relaxing)
 .debug_str     0x0000000000012860      0x143 /usr/lib/gcc/arm-none-eabi/8.3.1/thumb/v6-m/nofp/libgcc.a(divsf3.o)
                                        0x317 (size before relaxing)
 .debug_str     0x00000000000129a3       0x78 /usr/lib/gcc/arm-none-eabi/8.3.1/thumb/v6-m/nofp/libgcc.a(mulsf3.o)
                                        0x317 (size before relaxing)
 .debug_str     0x0000000000012a1b       0xe5 /usr/lib/gcc/arm-none-eabi/8.3.1/thumb/v6-m/nofp/libgcc.a(subsf3.o)
                                        0x2f2 (size before relaxing)
 .debug_str     0x0000000000012b00       0x2a /usr/lib/gcc/arm-none-eabi/8.3.1/thumb/v6-m/nofp/libgcc.a(fixsfsi.o)
                                        0x233 (size before relaxing)
 .debug_str     0x0000000000012b2a       0x48 /usr/lib/gcc/arm-none-eabi/8.3.1/thumb/v6-m/nofp/libgcc.a(floatunsisf.o)
                                        0x2b5 (size before relaxing)
 .debug_str     0x0000000000012b72       0x30 /usr/lib/gcc/arm-none-eabi/8.3.1/thumb/v6-m/nofp/libgcc.a(_arm_cmpsf2.o)
                                         0xa3 (size before relaxing)
 .debug_str     0x0000000000012ba2       0xa3 /usr/lib/gcc/arm-none-eabi/8.3.1/thumb/v6-m/nofp/libgcc.a(_clzsi2.o)
 .debug_str     0x0000000000012ba2       0x2f /usr/lib/gcc/arm-none-eabi/8.3.1/thumb/v6-m/nofp/libgcc.a(eqsf2.o)
                                        0x229 (size before relaxing)
 .debug_str     0x0000000000012bd1       0x34 /usr/lib/gcc/arm-none-eabi/8.3.1/thumb/v6-m/nofp/libgcc.a(gesf2.o)
                                        0x24d (size before relaxing)
 .debug_str     0x0000000000012c05       0x10 /usr/lib/gcc/arm-none-eabi/8.3.1/thumb/v6-m/nofp/libgcc.a(lesf2.o)
                                        0x24d (size before relaxing)
 .debug_str     0x0000000000012c15       0xa3 /usr/lib/gcc/arm-none-eabi/8.3.1/thumb/v6-m/nofp/libgcc.a(_thumb1_case_uqi.o)
 .debug_str     0x0000000000012c15       0xa3 /usr/lib/gcc/arm-none-eabi/8.3.1/thumb/v6-m/nofp/libgcc.a(_thumb1_case_shi.o)
 .debug_str     0x0000000000012c15       0xa3 /usr/lib/gcc/arm-none-eabi/8.3.1/thumb/v6-m/nofp/libgcc.a(_thumb1_case_uhi.o)
 .debug_str     0x0000000000012c15       0xa3 /usr/lib/gcc/arm-none-eabi/8.3.1/thumb/v6-m/nofp/libgcc.a(_ctzsi2.o)
 .debug_str     0x0000000000012c15       0x18 /usr/lib/gcc/arm-none-eabi/8.3.1/thumb/v6-m/nofp/libgcc.a(floatsisf.o)
                                        0x2b9 (size before relaxing)
 .debug_str     0x0000000000012c2d      0x40a /usr/lib/gcc/arm-none-eabi/8.3.1/../../../arm-none-eabi/lib/thumb/v6-m/nofp/libg_nano.a(lib_a-ctype_.o)
                                        0x8f3 (size before relaxing)
 .debug_str     0x0000000000013037       0x9c /usr/lib/gcc/arm-none-eabi/8.3.1/../../../arm-none-eabi/lib/thumb/v6-m/nofp/libg_nano.a(lib_a-impure.o)
                                        0x5db (size before relaxing)
 .debug_str     0x00000000000130d3       0xcb /usr/lib/gcc/arm-none-eabi/8.3.1/../../../arm-none-eabi/lib/thumb/v6-m/nofp/libg_nano.a(lib_a-memcpy-stub.o)
                                        0x92d (size before relaxing)
 .debug_str     0x000000000001319e       0xa4 /usr/lib/gcc/arm-none-eabi/8.3.1/../../../arm-none-eabi/lib/thumb/v6-m/nofp/libg_nano.a(lib_a-rand.o)
                                        0x604 (size before relaxing)
 .debug_str     0x0000000000013242       0x57 /usr/lib/gcc/arm-none-eabi/8.3.1/../../../arm-none-eabi/lib/thumb/v6-m/nofp/libg_nano.a(lib_a-assert.o)
                                        0x61b (size before relaxing)
 .debug_str     0x0000000000013299       0xc6 /usr/lib/gcc/arm-none-eabi/8.3.1/../../../arm-none-eabi/lib/thumb/v6-m/nofp/libg_nano.a(lib_a-fprintf.o)
                                        0x61a (size before relaxing)
 .debug_str     0x000000000001335f       0x52 /usr/lib/gcc/arm-none-eabi/8.3.1/../../../arm-none-eabi/lib/thumb/v6-m/nofp/libg_nano.a(lib_a-malloc.o)
                                        0x60c (size before relaxing)
 .debug_str     0x00000000000133b1      0x137 /usr/lib/gcc/arm-none-eabi/8.3.1/../../../arm-none-eabi/lib/thumb/v6-m/nofp/libg_nano.a(lib_a-nano-freer.o)
                                        0x70b (size before relaxing)
 .debug_str     0x00000000000134e8       0x32 /usr/lib/gcc/arm-none-eabi/8.3.1/../../../arm-none-eabi/lib/thumb/v6-m/nofp/libg_nano.a(lib_a-nano-mallocr.o)
                                        0x722 (size before relaxing)
 .debug_str     0x000000000001351a      0x2bb /usr/lib/gcc/arm-none-eabi/8.3.1/../../../arm-none-eabi/lib/thumb/v6-m/nofp/libg_nano.a(lib_a-nano-vfprintf.o)
                                        0xc27 (size before relaxing)
 .debug_str     0x00000000000137d5       0x8d /usr/lib/gcc/arm-none-eabi/8.3.1/../../../arm-none-eabi/lib/thumb/v6-m/nofp/libg_nano.a(lib_a-nano-vfprintf_i.o)
                                        0xba5 (size before relaxing)
 .debug_str     0x0000000000013862       0x43 /usr/lib/gcc/arm-none-eabi/8.3.1/../../../arm-none-eabi/lib/thumb/v6-m/nofp/libg_nano.a(lib_a-wbuf.o)
                                        0x764 (size before relaxing)
 .debug_str     0x00000000000138a5       0x40 /usr/lib/gcc/arm-none-eabi/8.3.1/../../../arm-none-eabi/lib/thumb/v6-m/nofp/libg_nano.a(lib_a-wsetup.o)
                                        0x75f (size before relaxing)
 .debug_str     0x00000000000138e5       0x39 /usr/lib/gcc/arm-none-eabi/8.3.1/../../../arm-none-eabi/lib/thumb/v6-m/nofp/libg_nano.a(lib_a-abort.o)
                                        0x619 (size before relaxing)
 .debug_str     0x000000000001391e       0x63 /usr/lib/gcc/arm-none-eabi/8.3.1/../../../arm-none-eabi/lib/thumb/v6-m/nofp/libg_nano.a(lib_a-fflush.o)
                                        0x78d (size before relaxing)
 .debug_str     0x0000000000013981      0x16b /usr/lib/gcc/arm-none-eabi/8.3.1/../../../arm-none-eabi/lib/thumb/v6-m/nofp/libg_nano.a(lib_a-findfp.o)
                                        0x89d (size before relaxing)
 .debug_str     0x0000000000013aec       0x65 /usr/lib/gcc/arm-none-eabi/8.3.1/../../../arm-none-eabi/lib/thumb/v6-m/nofp/libg_nano.a(lib_a-fvwrite.o)
                                        0x7de (size before relaxing)
 .debug_str     0x0000000000013b51       0x41 /usr/lib/gcc/arm-none-eabi/8.3.1/../../../arm-none-eabi/lib/thumb/v6-m/nofp/libg_nano.a(lib_a-fwalk.o)
                                        0x751 (size before relaxing)
 .debug_str     0x0000000000013b92      0x165 /usr/lib/gcc/arm-none-eabi/8.3.1/../../../arm-none-eabi/lib/thumb/v6-m/nofp/libg_nano.a(lib_a-makebuf.o)
                                        0x8d2 (size before relaxing)
 .debug_str     0x0000000000013cf7       0x4f /usr/lib/gcc/arm-none-eabi/8.3.1/../../../arm-none-eabi/lib/thumb/v6-m/nofp/libg_nano.a(lib_a-memchr-stub.o)
                                        0x60b (size before relaxing)
 .debug_str     0x0000000000013d46       0x9c /usr/lib/gcc/arm-none-eabi/8.3.1/../../../arm-none-eabi/lib/thumb/v6-m/nofp/libg_nano.a(lib_a-memmove.o)
                                        0x927 (size before relaxing)
 .debug_str     0x0000000000013de2       0x41 /usr/lib/gcc/arm-none-eabi/8.3.1/../../../arm-none-eabi/lib/thumb/v6-m/nofp/libg_nano.a(lib_a-memset.o)
                                        0x908 (size before relaxing)
 .debug_str     0x0000000000013e23       0x4c /usr/lib/gcc/arm-none-eabi/8.3.1/../../../arm-none-eabi/lib/thumb/v6-m/nofp/libg_nano.a(lib_a-mlock.o)
                                        0x607 (size before relaxing)
 .debug_str     0x0000000000013e6f       0x23 /usr/lib/gcc/arm-none-eabi/8.3.1/../../../arm-none-eabi/lib/thumb/v6-m/nofp/libg_nano.a(lib_a-nano-reallocr.o)
                                        0x708 (size before relaxing)
 .debug_str     0x0000000000013e92       0xf8 /usr/lib/gcc/arm-none-eabi/8.3.1/../../../arm-none-eabi/lib/thumb/v6-m/nofp/libg_nano.a(lib_a-signal.o)
                                        0x67e (size before relaxing)
 .debug_str     0x0000000000013f8a       0x42 /usr/lib/gcc/arm-none-eabi/8.3.1/../../../arm-none-eabi/lib/thumb/v6-m/nofp/libg_nano.a(lib_a-signalr.o)
                                        0x623 (size before relaxing)
 .debug_str     0x0000000000013fcc       0x92 /usr/lib/gcc/arm-none-eabi/8.3.1/../../../arm-none-eabi/lib/thumb/v6-m/nofp/libg_nano.a(lib_a-stdio.o)
                                        0x7a5 (size before relaxing)
 .debug_str     0x000000000001405e        0xf /usr/lib/gcc/arm-none-eabi/8.3.1/../../../arm-none-eabi/lib/thumb/v6-m/nofp/libg_nano.a(lib_a-nano-msizer.o)
                                        0x6e6 (size before relaxing)
 .debug_str     0x000000000001406d       0x5e /usr/lib/gcc/arm-none-eabi/8.3.1/../../../arm-none-eabi/lib/thumb/v6-m/nofp/libg_nano.a(lib_a-reent.o)
                                        0x617 (size before relaxing)
 .debug_str     0x00000000000140cb       0x3b /usr/lib/gcc/arm-none-eabi/8.3.1/../../../arm-none-eabi/lib/thumb/v6-m/nofp/libg_nano.a(lib_a-memcmp.o)
                                        0x5df (size before relaxing)
 .debug_str     0x0000000000014106       0x48 /usr/lib/gcc/arm-none-eabi/8.3.1/../../../arm-none-eabi/lib/thumb/v6-m/nofp/libg_nano.a(lib_a-strlen-stub.o)
                                        0x604 (size before relaxing)

.debug_loc      0x0000000000000000    0x1b096
 .debug_loc     0x0000000000000000    0x12386 /tmp/ccxW9Zd7.ltrans0.ltrans.o
 .debug_loc     0x0000000000012386      0x11b .build/obj_sofle_rev1_EGF2/serial_protocol.a(serial_protocol.o)
 .debug_loc     0x00000000000124a1     0x1306 .build/obj_sofle_rev1_EGF2/serial_vendor.a(serial_vendor.o)
 .debug_loc     0x00000000000137a7      0x8f5 .build/obj_sofle_rev1_EGF2/i2c_master.a(i2c_master.o)
 .debug_loc     0x000000000001409c       0x41 /usr/lib/gcc/arm-none-eabi/8.3.1/thumb/v6-m/nofp/libgcc.a(_fixunssfsi.o)
 .debug_loc     0x00000000000140dd      0x84d /usr/lib/gcc/arm-none-eabi/8.3.1/thumb/v6-m/nofp/libgcc.a(divsf3.o)
 .debug_loc     0x000000000001492a      0x8bd /usr/lib/gcc/arm-none-eabi/8.3.1/thumb/v6-m/nofp/libgcc.a(mulsf3.o)
 .debug_loc     0x00000000000151e7      0x8b3 /usr/lib/gcc/arm-none-eabi/8.3.1/thumb/v6-m/nofp/libgcc.a(subsf3.o)
 .debug_loc     0x0000000000015a9a       0xf3 /usr/lib/gcc/arm-none-eabi/8.3.1/thumb/v6-m/nofp/libgcc.a(fixsfsi.o)
 .debug_loc     0x0000000000015b8d      0x264 /usr/lib/gcc/arm-none-eabi/8.3.1/thumb/v6-m/nofp/libgcc.a(floatunsisf.o)
 .debug_loc     0x0000000000015df1      0x143 /usr/lib/gcc/arm-none-eabi/8.3.1/thumb/v6-m/nofp/libgcc.a(eqsf2.o)
 .debug_loc     0x0000000000015f34      0x259 /usr/lib/gcc/arm-none-eabi/8.3.1/thumb/v6-m/nofp/libgcc.a(gesf2.o)
 .debug_loc     0x000000000001618d      0x24d /usr/lib/gcc/arm-none-eabi/8.3.1/thumb/v6-m/nofp/libgcc.a(lesf2.o)
 .debug_loc     0x00000000000163da      0x24d /usr/lib/gcc/arm-none-eabi/8.3.1/thumb/v6-m/nofp/libgcc.a(floatsisf.o)
 .debug_loc     0x0000000000016627      0x481 /usr/lib/gcc/arm-none-eabi/8.3.1/../../../arm-none-eabi/lib/thumb/v6-m/nofp/libg_nano.a(lib_a-memcpy-stub.o)
 .debug_loc     0x0000000000016aa8       0xef /usr/lib/gcc/arm-none-eabi/8.3.1/../../../arm-none-eabi/lib/thumb/v6-m/nofp/libg_nano.a(lib_a-rand.o)
 .debug_loc     0x0000000000016b97      0x142 /usr/lib/gcc/arm-none-eabi/8.3.1/../../../arm-none-eabi/lib/thumb/v6-m/nofp/libg_nano.a(lib_a-assert.o)
 .debug_loc     0x0000000000016cd9       0xa6 /usr/lib/gcc/arm-none-eabi/8.3.1/../../../arm-none-eabi/lib/thumb/v6-m/nofp/libg_nano.a(lib_a-fprintf.o)
 .debug_loc     0x0000000000016d7f       0x64 /usr/lib/gcc/arm-none-eabi/8.3.1/../../../arm-none-eabi/lib/thumb/v6-m/nofp/libg_nano.a(lib_a-malloc.o)
 .debug_loc     0x0000000000016de3      0x1ca /usr/lib/gcc/arm-none-eabi/8.3.1/../../../arm-none-eabi/lib/thumb/v6-m/nofp/libg_nano.a(lib_a-nano-freer.o)
 .debug_loc     0x0000000000016fad      0x2cc /usr/lib/gcc/arm-none-eabi/8.3.1/../../../arm-none-eabi/lib/thumb/v6-m/nofp/libg_nano.a(lib_a-nano-mallocr.o)
 .debug_loc     0x0000000000017279      0x852 /usr/lib/gcc/arm-none-eabi/8.3.1/../../../arm-none-eabi/lib/thumb/v6-m/nofp/libg_nano.a(lib_a-nano-vfprintf.o)
 .debug_loc     0x0000000000017acb      0x849 /usr/lib/gcc/arm-none-eabi/8.3.1/../../../arm-none-eabi/lib/thumb/v6-m/nofp/libg_nano.a(lib_a-nano-vfprintf_i.o)
 .debug_loc     0x0000000000018314      0x1a3 /usr/lib/gcc/arm-none-eabi/8.3.1/../../../arm-none-eabi/lib/thumb/v6-m/nofp/libg_nano.a(lib_a-wbuf.o)
 .debug_loc     0x00000000000184b7       0xaa /usr/lib/gcc/arm-none-eabi/8.3.1/../../../arm-none-eabi/lib/thumb/v6-m/nofp/libg_nano.a(lib_a-wsetup.o)
 .debug_loc     0x0000000000018561      0x36e /usr/lib/gcc/arm-none-eabi/8.3.1/../../../arm-none-eabi/lib/thumb/v6-m/nofp/libg_nano.a(lib_a-fflush.o)
 .debug_loc     0x00000000000188cf      0x373 /usr/lib/gcc/arm-none-eabi/8.3.1/../../../arm-none-eabi/lib/thumb/v6-m/nofp/libg_nano.a(lib_a-findfp.o)
 .debug_loc     0x0000000000018c42      0x6c4 /usr/lib/gcc/arm-none-eabi/8.3.1/../../../arm-none-eabi/lib/thumb/v6-m/nofp/libg_nano.a(lib_a-fvwrite.o)
 .debug_loc     0x0000000000019306      0x1f2 /usr/lib/gcc/arm-none-eabi/8.3.1/../../../arm-none-eabi/lib/thumb/v6-m/nofp/libg_nano.a(lib_a-fwalk.o)
 .debug_loc     0x00000000000194f8      0x223 /usr/lib/gcc/arm-none-eabi/8.3.1/../../../arm-none-eabi/lib/thumb/v6-m/nofp/libg_nano.a(lib_a-makebuf.o)
 .debug_loc     0x000000000001971b      0x1b3 /usr/lib/gcc/arm-none-eabi/8.3.1/../../../arm-none-eabi/lib/thumb/v6-m/nofp/libg_nano.a(lib_a-memchr-stub.o)
 .debug_loc     0x00000000000198ce      0x508 /usr/lib/gcc/arm-none-eabi/8.3.1/../../../arm-none-eabi/lib/thumb/v6-m/nofp/libg_nano.a(lib_a-memmove.o)
 .debug_loc     0x0000000000019dd6      0x2df /usr/lib/gcc/arm-none-eabi/8.3.1/../../../arm-none-eabi/lib/thumb/v6-m/nofp/libg_nano.a(lib_a-memset.o)
 .debug_loc     0x000000000001a0b5      0x17b /usr/lib/gcc/arm-none-eabi/8.3.1/../../../arm-none-eabi/lib/thumb/v6-m/nofp/libg_nano.a(lib_a-nano-reallocr.o)
 .debug_loc     0x000000000001a230      0x4fc /usr/lib/gcc/arm-none-eabi/8.3.1/../../../arm-none-eabi/lib/thumb/v6-m/nofp/libg_nano.a(lib_a-signal.o)
 .debug_loc     0x000000000001a72c       0xe5 /usr/lib/gcc/arm-none-eabi/8.3.1/../../../arm-none-eabi/lib/thumb/v6-m/nofp/libg_nano.a(lib_a-signalr.o)
 .debug_loc     0x000000000001a811      0x3f5 /usr/lib/gcc/arm-none-eabi/8.3.1/../../../arm-none-eabi/lib/thumb/v6-m/nofp/libg_nano.a(lib_a-stdio.o)
 .debug_loc     0x000000000001ac06       0xcc /usr/lib/gcc/arm-none-eabi/8.3.1/../../../arm-none-eabi/lib/thumb/v6-m/nofp/libg_nano.a(lib_a-nano-msizer.o)
 .debug_loc     0x000000000001acd2       0xf4 /usr/lib/gcc/arm-none-eabi/8.3.1/../../../arm-none-eabi/lib/thumb/v6-m/nofp/libg_nano.a(lib_a-reent.o)
 .debug_loc     0x000000000001adc6      0x22d /usr/lib/gcc/arm-none-eabi/8.3.1/../../../arm-none-eabi/lib/thumb/v6-m/nofp/libg_nano.a(lib_a-memcmp.o)
 .debug_loc     0x000000000001aff3       0xa3 /usr/lib/gcc/arm-none-eabi/8.3.1/../../../arm-none-eabi/lib/thumb/v6-m/nofp/libg_nano.a(lib_a-strlen-stub.o)

.debug_aranges  0x0000000000000000      0xf28
 .debug_aranges
                0x0000000000000000      0x818 /tmp/ccxW9Zd7.ltrans0.ltrans.o
 .debug_aranges
                0x0000000000000818       0x38 .build/obj_sofle_rev1_EGF2/serial_protocol.a(serial_protocol.o)
 .debug_aranges
                0x0000000000000850       0x80 .build/obj_sofle_rev1_EGF2/serial_vendor.a(serial_vendor.o)
 .debug_aranges
                0x00000000000008d0       0x68 .build/obj_sofle_rev1_EGF2/i2c_master.a(i2c_master.o)
 .debug_aranges
                0x0000000000000938       0x20 /usr/lib/gcc/arm-none-eabi/8.3.1/thumb/v6-m/nofp/libgcc.a(_dvmd_tls.o)
 .debug_aranges
                0x0000000000000958       0x20 /usr/lib/gcc/arm-none-eabi/8.3.1/thumb/v6-m/nofp/libgcc.a(_fixunssfsi.o)
 .debug_aranges
                0x0000000000000978       0x20 /usr/lib/gcc/arm-none-eabi/8.3.1/thumb/v6-m/nofp/libgcc.a(divsf3.o)
 .debug_aranges
                0x0000000000000998       0x20 /usr/lib/gcc/arm-none-eabi/8.3.1/thumb/v6-m/nofp/libgcc.a(mulsf3.o)
 .debug_aranges
                0x00000000000009b8       0x20 /usr/lib/gcc/arm-none-eabi/8.3.1/thumb/v6-m/nofp/libgcc.a(subsf3.o)
 .debug_aranges
                0x00000000000009d8       0x20 /usr/lib/gcc/arm-none-eabi/8.3.1/thumb/v6-m/nofp/libgcc.a(fixsfsi.o)
 .debug_aranges
                0x00000000000009f8       0x20 /usr/lib/gcc/arm-none-eabi/8.3.1/thumb/v6-m/nofp/libgcc.a(floatunsisf.o)
 .debug_aranges
                0x0000000000000a18       0x20 /usr/lib/gcc/arm-none-eabi/8.3.1/thumb/v6-m/nofp/libgcc.a(_arm_cmpsf2.o)
 .debug_aranges
                0x0000000000000a38       0x20 /usr/lib/gcc/arm-none-eabi/8.3.1/thumb/v6-m/nofp/libgcc.a(_clzsi2.o)
 .debug_aranges
                0x0000000000000a58       0x20 /usr/lib/gcc/arm-none-eabi/8.3.1/thumb/v6-m/nofp/libgcc.a(eqsf2.o)
 .debug_aranges
                0x0000000000000a78       0x20 /usr/lib/gcc/arm-none-eabi/8.3.1/thumb/v6-m/nofp/libgcc.a(gesf2.o)
 .debug_aranges
                0x0000000000000a98       0x20 /usr/lib/gcc/arm-none-eabi/8.3.1/thumb/v6-m/nofp/libgcc.a(lesf2.o)
 .debug_aranges
                0x0000000000000ab8       0x20 /usr/lib/gcc/arm-none-eabi/8.3.1/thumb/v6-m/nofp/libgcc.a(_thumb1_case_uqi.o)
 .debug_aranges
                0x0000000000000ad8       0x20 /usr/lib/gcc/arm-none-eabi/8.3.1/thumb/v6-m/nofp/libgcc.a(_thumb1_case_shi.o)
 .debug_aranges
                0x0000000000000af8       0x20 /usr/lib/gcc/arm-none-eabi/8.3.1/thumb/v6-m/nofp/libgcc.a(_thumb1_case_uhi.o)
 .debug_aranges
                0x0000000000000b18       0x20 /usr/lib/gcc/arm-none-eabi/8.3.1/thumb/v6-m/nofp/libgcc.a(_ctzsi2.o)
 .debug_aranges
                0x0000000000000b38       0x20 /usr/lib/gcc/arm-none-eabi/8.3.1/thumb/v6-m/nofp/libgcc.a(floatsisf.o)
 .debug_aranges
                0x0000000000000b58       0x18 /usr/lib/gcc/arm-none-eabi/8.3.1/../../../arm-none-eabi/lib/thumb/v6-m/nofp/libg_nano.a(lib_a-ctype_.o)
 .debug_aranges
                0x0000000000000b70       0x18 /usr/lib/gcc/arm-none-eabi/8.3.1/../../../arm-none-eabi/lib/thumb/v6-m/nofp/libg_nano.a(lib_a-impure.o)
 .debug_aranges
                0x0000000000000b88       0x20 /usr/lib/gcc/arm-none-eabi/8.3.1/../../../arm-none-eabi/lib/thumb/v6-m/nofp/libg_nano.a(lib_a-memcpy-stub.o)
 .debug_aranges
                0x0000000000000ba8       0x20 /usr/lib/gcc/arm-none-eabi/8.3.1/../../../arm-none-eabi/lib/thumb/v6-m/nofp/libg_nano.a(lib_a-rand.o)
 .debug_aranges
                0x0000000000000bc8       0x20 /usr/lib/gcc/arm-none-eabi/8.3.1/../../../arm-none-eabi/lib/thumb/v6-m/nofp/libg_nano.a(lib_a-assert.o)
 .debug_aranges
                0x0000000000000be8       0x20 /usr/lib/gcc/arm-none-eabi/8.3.1/../../../arm-none-eabi/lib/thumb/v6-m/nofp/libg_nano.a(lib_a-fprintf.o)
 .debug_aranges
                0x0000000000000c08       0x20 /usr/lib/gcc/arm-none-eabi/8.3.1/../../../arm-none-eabi/lib/thumb/v6-m/nofp/libg_nano.a(lib_a-malloc.o)
 .debug_aranges
                0x0000000000000c28       0x20 /usr/lib/gcc/arm-none-eabi/8.3.1/../../../arm-none-eabi/lib/thumb/v6-m/nofp/libg_nano.a(lib_a-nano-freer.o)
 .debug_aranges
                0x0000000000000c48       0x20 /usr/lib/gcc/arm-none-eabi/8.3.1/../../../arm-none-eabi/lib/thumb/v6-m/nofp/libg_nano.a(lib_a-nano-mallocr.o)
 .debug_aranges
                0x0000000000000c68       0x20 /usr/lib/gcc/arm-none-eabi/8.3.1/../../../arm-none-eabi/lib/thumb/v6-m/nofp/libg_nano.a(lib_a-nano-vfprintf.o)
 .debug_aranges
                0x0000000000000c88       0x20 /usr/lib/gcc/arm-none-eabi/8.3.1/../../../arm-none-eabi/lib/thumb/v6-m/nofp/libg_nano.a(lib_a-nano-vfprintf_i.o)
 .debug_aranges
                0x0000000000000ca8       0x20 /usr/lib/gcc/arm-none-eabi/8.3.1/../../../arm-none-eabi/lib/thumb/v6-m/nofp/libg_nano.a(lib_a-wbuf.o)
 .debug_aranges
                0x0000000000000cc8       0x20 /usr/lib/gcc/arm-none-eabi/8.3.1/../../../arm-none-eabi/lib/thumb/v6-m/nofp/libg_nano.a(lib_a-wsetup.o)
 .debug_aranges
                0x0000000000000ce8       0x20 /usr/lib/gcc/arm-none-eabi/8.3.1/../../../arm-none-eabi/lib/thumb/v6-m/nofp/libg_nano.a(lib_a-abort.o)
 .debug_aranges
                0x0000000000000d08       0x20 /usr/lib/gcc/arm-none-eabi/8.3.1/../../../arm-none-eabi/lib/thumb/v6-m/nofp/libg_nano.a(lib_a-fflush.o)
 .debug_aranges
                0x0000000000000d28       0x20 /usr/lib/gcc/arm-none-eabi/8.3.1/../../../arm-none-eabi/lib/thumb/v6-m/nofp/libg_nano.a(lib_a-findfp.o)
 .debug_aranges
                0x0000000000000d48       0x20 /usr/lib/gcc/arm-none-eabi/8.3.1/../../../arm-none-eabi/lib/thumb/v6-m/nofp/libg_nano.a(lib_a-fvwrite.o)
 .debug_aranges
                0x0000000000000d68       0x20 /usr/lib/gcc/arm-none-eabi/8.3.1/../../../arm-none-eabi/lib/thumb/v6-m/nofp/libg_nano.a(lib_a-fwalk.o)
 .debug_aranges
                0x0000000000000d88       0x20 /usr/lib/gcc/arm-none-eabi/8.3.1/../../../arm-none-eabi/lib/thumb/v6-m/nofp/libg_nano.a(lib_a-makebuf.o)
 .debug_aranges
                0x0000000000000da8       0x20 /usr/lib/gcc/arm-none-eabi/8.3.1/../../../arm-none-eabi/lib/thumb/v6-m/nofp/libg_nano.a(lib_a-memchr-stub.o)
 .debug_aranges
                0x0000000000000dc8       0x20 /usr/lib/gcc/arm-none-eabi/8.3.1/../../../arm-none-eabi/lib/thumb/v6-m/nofp/libg_nano.a(lib_a-memmove.o)
 .debug_aranges
                0x0000000000000de8       0x20 /usr/lib/gcc/arm-none-eabi/8.3.1/../../../arm-none-eabi/lib/thumb/v6-m/nofp/libg_nano.a(lib_a-memset.o)
 .debug_aranges
                0x0000000000000e08       0x20 /usr/lib/gcc/arm-none-eabi/8.3.1/../../../arm-none-eabi/lib/thumb/v6-m/nofp/libg_nano.a(lib_a-mlock.o)
 .debug_aranges
                0x0000000000000e28       0x20 /usr/lib/gcc/arm-none-eabi/8.3.1/../../../arm-none-eabi/lib/thumb/v6-m/nofp/libg_nano.a(lib_a-nano-reallocr.o)
 .debug_aranges
                0x0000000000000e48       0x20 /usr/lib/gcc/arm-none-eabi/8.3.1/../../../arm-none-eabi/lib/thumb/v6-m/nofp/libg_nano.a(lib_a-signal.o)
 .debug_aranges
                0x0000000000000e68       0x20 /usr/lib/gcc/arm-none-eabi/8.3.1/../../../arm-none-eabi/lib/thumb/v6-m/nofp/libg_nano.a(lib_a-signalr.o)
 .debug_aranges
                0x0000000000000e88       0x20 /usr/lib/gcc/arm-none-eabi/8.3.1/../../../arm-none-eabi/lib/thumb/v6-m/nofp/libg_nano.a(lib_a-stdio.o)
 .debug_aranges
                0x0000000000000ea8       0x20 /usr/lib/gcc/arm-none-eabi/8.3.1/../../../arm-none-eabi/lib/thumb/v6-m/nofp/libg_nano.a(lib_a-nano-msizer.o)
 .debug_aranges
                0x0000000000000ec8       0x20 /usr/lib/gcc/arm-none-eabi/8.3.1/../../../arm-none-eabi/lib/thumb/v6-m/nofp/libg_nano.a(lib_a-reent.o)
 .debug_aranges
                0x0000000000000ee8       0x20 /usr/lib/gcc/arm-none-eabi/8.3.1/../../../arm-none-eabi/lib/thumb/v6-m/nofp/libg_nano.a(lib_a-memcmp.o)
 .debug_aranges
                0x0000000000000f08       0x20 /usr/lib/gcc/arm-none-eabi/8.3.1/../../../arm-none-eabi/lib/thumb/v6-m/nofp/libg_nano.a(lib_a-strlen-stub.o)

.debug_ranges   0x0000000000000000     0x7910
 .debug_ranges  0x0000000000000000     0x6580 /tmp/ccxW9Zd7.ltrans0.ltrans.o
 .debug_ranges  0x0000000000006580       0x80 .build/obj_sofle_rev1_EGF2/serial_protocol.a(serial_protocol.o)
 .debug_ranges  0x0000000000006600      0xb30 .build/obj_sofle_rev1_EGF2/serial_vendor.a(serial_vendor.o)
 .debug_ranges  0x0000000000007130      0x108 .build/obj_sofle_rev1_EGF2/i2c_master.a(i2c_master.o)
 .debug_ranges  0x0000000000007238       0x80 /usr/lib/gcc/arm-none-eabi/8.3.1/thumb/v6-m/nofp/libgcc.a(divsf3.o)
 .debug_ranges  0x00000000000072b8       0x58 /usr/lib/gcc/arm-none-eabi/8.3.1/thumb/v6-m/nofp/libgcc.a(mulsf3.o)
 .debug_ranges  0x0000000000007310      0x198 /usr/lib/gcc/arm-none-eabi/8.3.1/thumb/v6-m/nofp/libgcc.a(subsf3.o)
 .debug_ranges  0x00000000000074a8       0x38 /usr/lib/gcc/arm-none-eabi/8.3.1/thumb/v6-m/nofp/libgcc.a(floatunsisf.o)
 .debug_ranges  0x00000000000074e0       0x30 /usr/lib/gcc/arm-none-eabi/8.3.1/thumb/v6-m/nofp/libgcc.a(eqsf2.o)
 .debug_ranges  0x0000000000007510       0x58 /usr/lib/gcc/arm-none-eabi/8.3.1/thumb/v6-m/nofp/libgcc.a(gesf2.o)
 .debug_ranges  0x0000000000007568       0x58 /usr/lib/gcc/arm-none-eabi/8.3.1/thumb/v6-m/nofp/libgcc.a(lesf2.o)
 .debug_ranges  0x00000000000075c0       0x38 /usr/lib/gcc/arm-none-eabi/8.3.1/thumb/v6-m/nofp/libgcc.a(floatsisf.o)
 .debug_ranges  0x00000000000075f8       0x38 /usr/lib/gcc/arm-none-eabi/8.3.1/../../../arm-none-eabi/lib/thumb/v6-m/nofp/libg_nano.a(lib_a-rand.o)
 .debug_ranges  0x0000000000007630       0x18 /usr/lib/gcc/arm-none-eabi/8.3.1/../../../arm-none-eabi/lib/thumb/v6-m/nofp/libg_nano.a(lib_a-nano-freer.o)
 .debug_ranges  0x0000000000007648       0x38 /usr/lib/gcc/arm-none-eabi/8.3.1/../../../arm-none-eabi/lib/thumb/v6-m/nofp/libg_nano.a(lib_a-nano-mallocr.o)
 .debug_ranges  0x0000000000007680       0x30 /usr/lib/gcc/arm-none-eabi/8.3.1/../../../arm-none-eabi/lib/thumb/v6-m/nofp/libg_nano.a(lib_a-nano-vfprintf.o)
 .debug_ranges  0x00000000000076b0       0xc0 /usr/lib/gcc/arm-none-eabi/8.3.1/../../../arm-none-eabi/lib/thumb/v6-m/nofp/libg_nano.a(lib_a-nano-vfprintf_i.o)
 .debug_ranges  0x0000000000007770       0x30 /usr/lib/gcc/arm-none-eabi/8.3.1/../../../arm-none-eabi/lib/thumb/v6-m/nofp/libg_nano.a(lib_a-wbuf.o)
 .debug_ranges  0x00000000000077a0       0x38 /usr/lib/gcc/arm-none-eabi/8.3.1/../../../arm-none-eabi/lib/thumb/v6-m/nofp/libg_nano.a(lib_a-wsetup.o)
 .debug_ranges  0x00000000000077d8       0x48 /usr/lib/gcc/arm-none-eabi/8.3.1/../../../arm-none-eabi/lib/thumb/v6-m/nofp/libg_nano.a(lib_a-fflush.o)
 .debug_ranges  0x0000000000007820       0xb8 /usr/lib/gcc/arm-none-eabi/8.3.1/../../../arm-none-eabi/lib/thumb/v6-m/nofp/libg_nano.a(lib_a-findfp.o)
 .debug_ranges  0x00000000000078d8       0x20 /usr/lib/gcc/arm-none-eabi/8.3.1/../../../arm-none-eabi/lib/thumb/v6-m/nofp/libg_nano.a(lib_a-fvwrite.o)
 .debug_ranges  0x00000000000078f8       0x18 /usr/lib/gcc/arm-none-eabi/8.3.1/../../../arm-none-eabi/lib/thumb/v6-m/nofp/libg_nano.a(lib_a-signal.o)

.comment        0x0000000000000000       0x9f
 .comment       0x0000000000000000       0x52 /tmp/ccxW9Zd7.ltrans0.ltrans.o
 .comment       0x0000000000000000       0x51 .build/obj_sofle_rev1_EGF2/serial_protocol.a(serial_protocol.o)
                                         0x52 (size before relaxing)
 .comment       0x0000000000000051       0x52 .build/obj_sofle_rev1_EGF2/serial_vendor.a(serial_vendor.o)
 .comment       0x0000000000000051       0x52 .build/obj_sofle_rev1_EGF2/i2c_master.a(i2c_master.o)
 .comment       0x0000000000000051       0x52 /usr/lib/gcc/arm-none-eabi/8.3.1/thumb/v6-m/nofp/libgcc.a(_fixunssfsi.o)
 .comment       0x0000000000000051       0x52 /usr/lib/gcc/arm-none-eabi/8.3.1/thumb/v6-m/nofp/libgcc.a(divsf3.o)
 .comment       0x0000000000000051       0x52 /usr/lib/gcc/arm-none-eabi/8.3.1/thumb/v6-m/nofp/libgcc.a(mulsf3.o)
 .comment       0x0000000000000051       0x52 /usr/lib/gcc/arm-none-eabi/8.3.1/thumb/v6-m/nofp/libgcc.a(subsf3.o)
 .comment       0x0000000000000051       0x52 /usr/lib/gcc/arm-none-eabi/8.3.1/thumb/v6-m/nofp/libgcc.a(fixsfsi.o)
 .comment       0x0000000000000051       0x52 /usr/lib/gcc/arm-none-eabi/8.3.1/thumb/v6-m/nofp/libgcc.a(floatunsisf.o)
 .comment       0x0000000000000051       0x52 /usr/lib/gcc/arm-none-eabi/8.3.1/thumb/v6-m/nofp/libgcc.a(eqsf2.o)
 .comment       0x0000000000000051       0x52 /usr/lib/gcc/arm-none-eabi/8.3.1/thumb/v6-m/nofp/libgcc.a(gesf2.o)
 .comment       0x0000000000000051       0x52 /usr/lib/gcc/arm-none-eabi/8.3.1/thumb/v6-m/nofp/libgcc.a(lesf2.o)
 .comment       0x0000000000000051       0x52 /usr/lib/gcc/arm-none-eabi/8.3.1/thumb/v6-m/nofp/libgcc.a(floatsisf.o)
 .comment       0x0000000000000051       0x4e /usr/lib/gcc/arm-none-eabi/8.3.1/../../../arm-none-eabi/lib/thumb/v6-m/nofp/libg_nano.a(lib_a-ctype_.o)
                                         0x4f (size before relaxing)
 .comment       0x000000000000009f       0x4f /usr/lib/gcc/arm-none-eabi/8.3.1/../../../arm-none-eabi/lib/thumb/v6-m/nofp/libg_nano.a(lib_a-impure.o)
 .comment       0x000000000000009f       0x4f /usr/lib/gcc/arm-none-eabi/8.3.1/../../../arm-none-eabi/lib/thumb/v6-m/nofp/libg_nano.a(lib_a-memcpy-stub.o)
 .comment       0x000000000000009f       0x4f /usr/lib/gcc/arm-none-eabi/8.3.1/../../../arm-none-eabi/lib/thumb/v6-m/nofp/libg_nano.a(lib_a-rand.o)
 .comment       0x000000000000009f       0x4f /usr/lib/gcc/arm-none-eabi/8.3.1/../../../arm-none-eabi/lib/thumb/v6-m/nofp/libg_nano.a(lib_a-assert.o)
 .comment       0x000000000000009f       0x4f /usr/lib/gcc/arm-none-eabi/8.3.1/../../../arm-none-eabi/lib/thumb/v6-m/nofp/libg_nano.a(lib_a-fprintf.o)
 .comment       0x000000000000009f       0x4f /usr/lib/gcc/arm-none-eabi/8.3.1/../../../arm-none-eabi/lib/thumb/v6-m/nofp/libg_nano.a(lib_a-malloc.o)
 .comment       0x000000000000009f       0x4f /usr/lib/gcc/arm-none-eabi/8.3.1/../../../arm-none-eabi/lib/thumb/v6-m/nofp/libg_nano.a(lib_a-nano-freer.o)
 .comment       0x000000000000009f       0x4f /usr/lib/gcc/arm-none-eabi/8.3.1/../../../arm-none-eabi/lib/thumb/v6-m/nofp/libg_nano.a(lib_a-nano-mallocr.o)
 .comment       0x000000000000009f       0x4f /usr/lib/gcc/arm-none-eabi/8.3.1/../../../arm-none-eabi/lib/thumb/v6-m/nofp/libg_nano.a(lib_a-nano-vfprintf.o)
 .comment       0x000000000000009f       0x4f /usr/lib/gcc/arm-none-eabi/8.3.1/../../../arm-none-eabi/lib/thumb/v6-m/nofp/libg_nano.a(lib_a-nano-vfprintf_i.o)
 .comment       0x000000000000009f       0x4f /usr/lib/gcc/arm-none-eabi/8.3.1/../../../arm-none-eabi/lib/thumb/v6-m/nofp/libg_nano.a(lib_a-wbuf.o)
 .comment       0x000000000000009f       0x4f /usr/lib/gcc/arm-none-eabi/8.3.1/../../../arm-none-eabi/lib/thumb/v6-m/nofp/libg_nano.a(lib_a-wsetup.o)
 .comment       0x000000000000009f       0x4f /usr/lib/gcc/arm-none-eabi/8.3.1/../../../arm-none-eabi/lib/thumb/v6-m/nofp/libg_nano.a(lib_a-abort.o)
 .comment       0x000000000000009f       0x4f /usr/lib/gcc/arm-none-eabi/8.3.1/../../../arm-none-eabi/lib/thumb/v6-m/nofp/libg_nano.a(lib_a-fflush.o)
 .comment       0x000000000000009f       0x4f /usr/lib/gcc/arm-none-eabi/8.3.1/../../../arm-none-eabi/lib/thumb/v6-m/nofp/libg_nano.a(lib_a-findfp.o)
 .comment       0x000000000000009f       0x4f /usr/lib/gcc/arm-none-eabi/8.3.1/../../../arm-none-eabi/lib/thumb/v6-m/nofp/libg_nano.a(lib_a-fvwrite.o)
 .comment       0x000000000000009f       0x4f /usr/lib/gcc/arm-none-eabi/8.3.1/../../../arm-none-eabi/lib/thumb/v6-m/nofp/libg_nano.a(lib_a-fwalk.o)
 .comment       0x000000000000009f       0x4f /usr/lib/gcc/arm-none-eabi/8.3.1/../../../arm-none-eabi/lib/thumb/v6-m/nofp/libg_nano.a(lib_a-makebuf.o)
 .comment       0x000000000000009f       0x4f /usr/lib/gcc/arm-none-eabi/8.3.1/../../../arm-none-eabi/lib/thumb/v6-m/nofp/libg_nano.a(lib_a-memchr-stub.o)
 .comment       0x000000000000009f       0x4f /usr/lib/gcc/arm-none-eabi/8.3.1/../../../arm-none-eabi/lib/thumb/v6-m/nofp/libg_nano.a(lib_a-memmove.o)
 .comment       0x000000000000009f       0x4f /usr/lib/gcc/arm-none-eabi/8.3.1/../../../arm-none-eabi/lib/thumb/v6-m/nofp/libg_nano.a(lib_a-memset.o)
 .comment       0x000000000000009f       0x4f /usr/lib/gcc/arm-none-eabi/8.3.1/../../../arm-none-eabi/lib/thumb/v6-m/nofp/libg_nano.a(lib_a-mlock.o)
 .comment       0x000000000000009f       0x4f /usr/lib/gcc/arm-none-eabi/8.3.1/../../../arm-none-eabi/lib/thumb/v6-m/nofp/libg_nano.a(lib_a-nano-reallocr.o)
 .comment       0x000000000000009f       0x4f /usr/lib/gcc/arm-none-eabi/8.3.1/../../../arm-none-eabi/lib/thumb/v6-m/nofp/libg_nano.a(lib_a-signal.o)
 .comment       0x000000000000009f       0x4f /usr/lib/gcc/arm-none-eabi/8.3.1/../../../arm-none-eabi/lib/thumb/v6-m/nofp/libg_nano.a(lib_a-signalr.o)
 .comment       0x000000000000009f       0x4f /usr/lib/gcc/arm-none-eabi/8.3.1/../../../arm-none-eabi/lib/thumb/v6-m/nofp/libg_nano.a(lib_a-stdio.o)
 .comment       0x000000000000009f       0x4f /usr/lib/gcc/arm-none-eabi/8.3.1/../../../arm-none-eabi/lib/thumb/v6-m/nofp/libg_nano.a(lib_a-nano-msizer.o)
 .comment       0x000000000000009f       0x4f /usr/lib/gcc/arm-none-eabi/8.3.1/../../../arm-none-eabi/lib/thumb/v6-m/nofp/libg_nano.a(lib_a-reent.o)
 .comment       0x000000000000009f       0x4f /usr/lib/gcc/arm-none-eabi/8.3.1/../../../arm-none-eabi/lib/thumb/v6-m/nofp/libg_nano.a(lib_a-memcmp.o)
 .comment       0x000000000000009f       0x4f /usr/lib/gcc/arm-none-eabi/8.3.1/../../../arm-none-eabi/lib/thumb/v6-m/nofp/libg_nano.a(lib_a-strlen-stub.o)

.ARM.attributes
                0x0000000000000000       0x2a
 .ARM.attributes
                0x0000000000000000       0x2a /tmp/ccxW9Zd7.ltrans0.ltrans.o
 .ARM.attributes
                0x000000000000002a       0x2c .build/obj_sofle_rev1_EGF2/serial_protocol.a(serial_protocol.o)
 .ARM.attributes
                0x0000000000000056       0x2c .build/obj_sofle_rev1_EGF2/serial_vendor.a(serial_vendor.o)
 .ARM.attributes
                0x0000000000000082       0x2c .build/obj_sofle_rev1_EGF2/i2c_master.a(i2c_master.o)
 .ARM.attributes
                0x00000000000000ae       0x21 .build/obj_sofle_rev1_EGF2/./lib/chibios/os/common/startup/ARMCMx/compilers/GCC/crt0_v6m.o
 .ARM.attributes
                0x00000000000000cf       0x21 .build/obj_sofle_rev1_EGF2/./lib/chibios/os/common/startup/ARMCMx/compilers/GCC/vectors.o
 .ARM.attributes
                0x00000000000000f0       0x21 .build/obj_sofle_rev1_EGF2/./lib/chibios/os/common/ports/ARMv6-M-RP2/compilers/GCC/chcoreasm.o
 .ARM.attributes
                0x0000000000000111       0x22 .build/obj_sofle_rev1/./lib/pico-sdk/src/rp2_common/pico_divider/divider.o
 .ARM.attributes
                0x0000000000000133       0x22 .build/obj_sofle_rev1/./lib/pico-sdk/src/rp2_common/pico_int64_ops/pico_int64_ops_aeabi.o
 .ARM.attributes
                0x0000000000000155       0x1e /usr/lib/gcc/arm-none-eabi/8.3.1/thumb/v6-m/nofp/libgcc.a(_dvmd_tls.o)
 .ARM.attributes
                0x0000000000000173       0x2c /usr/lib/gcc/arm-none-eabi/8.3.1/thumb/v6-m/nofp/libgcc.a(_fixunssfsi.o)
 .ARM.attributes
                0x000000000000019f       0x2c /usr/lib/gcc/arm-none-eabi/8.3.1/thumb/v6-m/nofp/libgcc.a(divsf3.o)
 .ARM.attributes
                0x00000000000001cb       0x2c /usr/lib/gcc/arm-none-eabi/8.3.1/thumb/v6-m/nofp/libgcc.a(mulsf3.o)
 .ARM.attributes
                0x00000000000001f7       0x2c /usr/lib/gcc/arm-none-eabi/8.3.1/thumb/v6-m/nofp/libgcc.a(subsf3.o)
 .ARM.attributes
                0x0000000000000223       0x2c /usr/lib/gcc/arm-none-eabi/8.3.1/thumb/v6-m/nofp/libgcc.a(fixsfsi.o)
 .ARM.attributes
                0x000000000000024f       0x2c /usr/lib/gcc/arm-none-eabi/8.3.1/thumb/v6-m/nofp/libgcc.a(floatunsisf.o)
 .ARM.attributes
                0x000000000000027b       0x1e /usr/lib/gcc/arm-none-eabi/8.3.1/thumb/v6-m/nofp/libgcc.a(_arm_cmpsf2.o)
 .ARM.attributes
                0x0000000000000299       0x1e /usr/lib/gcc/arm-none-eabi/8.3.1/thumb/v6-m/nofp/libgcc.a(_clzsi2.o)
 .ARM.attributes
                0x00000000000002b7       0x2c /usr/lib/gcc/arm-none-eabi/8.3.1/thumb/v6-m/nofp/libgcc.a(eqsf2.o)
 .ARM.attributes
                0x00000000000002e3       0x2c /usr/lib/gcc/arm-none-eabi/8.3.1/thumb/v6-m/nofp/libgcc.a(gesf2.o)
 .ARM.attributes
                0x000000000000030f       0x2c /usr/lib/gcc/arm-none-eabi/8.3.1/thumb/v6-m/nofp/libgcc.a(lesf2.o)
 .ARM.attributes
                0x000000000000033b       0x1e /usr/lib/gcc/arm-none-eabi/8.3.1/thumb/v6-m/nofp/libgcc.a(_thumb1_case_uqi.o)
 .ARM.attributes
                0x0000000000000359       0x1e /usr/lib/gcc/arm-none-eabi/8.3.1/thumb/v6-m/nofp/libgcc.a(_thumb1_case_shi.o)
 .ARM.attributes
                0x0000000000000377       0x1e /usr/lib/gcc/arm-none-eabi/8.3.1/thumb/v6-m/nofp/libgcc.a(_thumb1_case_uhi.o)
 .ARM.attributes
                0x0000000000000395       0x1e /usr/lib/gcc/arm-none-eabi/8.3.1/thumb/v6-m/nofp/libgcc.a(_ctzsi2.o)
 .ARM.attributes
                0x00000000000003b3       0x2c /usr/lib/gcc/arm-none-eabi/8.3.1/thumb/v6-m/nofp/libgcc.a(floatsisf.o)
 .ARM.attributes
                0x00000000000003df       0x2c /usr/lib/gcc/arm-none-eabi/8.3.1/../../../arm-none-eabi/lib/thumb/v6-m/nofp/libg_nano.a(lib_a-ctype_.o)
 .ARM.attributes
                0x000000000000040b       0x2c /usr/lib/gcc/arm-none-eabi/8.3.1/../../../arm-none-eabi/lib/thumb/v6-m/nofp/libg_nano.a(lib_a-impure.o)
 .ARM.attributes
                0x0000000000000437       0x2c /usr/lib/gcc/arm-none-eabi/8.3.1/../../../arm-none-eabi/lib/thumb/v6-m/nofp/libg_nano.a(lib_a-memcpy-stub.o)
 .ARM.attributes
                0x0000000000000463       0x2c /usr/lib/gcc/arm-none-eabi/8.3.1/../../../arm-none-eabi/lib/thumb/v6-m/nofp/libg_nano.a(lib_a-rand.o)
 .ARM.attributes
                0x000000000000048f       0x2c /usr/lib/gcc/arm-none-eabi/8.3.1/../../../arm-none-eabi/lib/thumb/v6-m/nofp/libg_nano.a(lib_a-assert.o)
 .ARM.attributes
                0x00000000000004bb       0x2c /usr/lib/gcc/arm-none-eabi/8.3.1/../../../arm-none-eabi/lib/thumb/v6-m/nofp/libg_nano.a(lib_a-fprintf.o)
 .ARM.attributes
                0x00000000000004e7       0x2c /usr/lib/gcc/arm-none-eabi/8.3.1/../../../arm-none-eabi/lib/thumb/v6-m/nofp/libg_nano.a(lib_a-malloc.o)
 .ARM.attributes
                0x0000000000000513       0x2c /usr/lib/gcc/arm-none-eabi/8.3.1/../../../arm-none-eabi/lib/thumb/v6-m/nofp/libg_nano.a(lib_a-nano-freer.o)
 .ARM.attributes
                0x000000000000053f       0x2c /usr/lib/gcc/arm-none-eabi/8.3.1/../../../arm-none-eabi/lib/thumb/v6-m/nofp/libg_nano.a(lib_a-nano-mallocr.o)
 .ARM.attributes
                0x000000000000056b       0x2c /usr/lib/gcc/arm-none-eabi/8.3.1/../../../arm-none-eabi/lib/thumb/v6-m/nofp/libg_nano.a(lib_a-nano-vfprintf.o)
 .ARM.attributes
                0x0000000000000597       0x2c /usr/lib/gcc/arm-none-eabi/8.3.1/../../../arm-none-eabi/lib/thumb/v6-m/nofp/libg_nano.a(lib_a-nano-vfprintf_i.o)
 .ARM.attributes
                0x00000000000005c3       0x2c /usr/lib/gcc/arm-none-eabi/8.3.1/../../../arm-none-eabi/lib/thumb/v6-m/nofp/libg_nano.a(lib_a-wbuf.o)
 .ARM.attributes
                0x00000000000005ef       0x2c /usr/lib/gcc/arm-none-eabi/8.3.1/../../../arm-none-eabi/lib/thumb/v6-m/nofp/libg_nano.a(lib_a-wsetup.o)
 .ARM.attributes
                0x000000000000061b       0x2c /usr/lib/gcc/arm-none-eabi/8.3.1/../../../arm-none-eabi/lib/thumb/v6-m/nofp/libg_nano.a(lib_a-abort.o)
 .ARM.attributes
                0x0000000000000647       0x2c /usr/lib/gcc/arm-none-eabi/8.3.1/../../../arm-none-eabi/lib/thumb/v6-m/nofp/libg_nano.a(lib_a-fflush.o)
 .ARM.attributes
                0x0000000000000673       0x2c /usr/lib/gcc/arm-none-eabi/8.3.1/../../../arm-none-eabi/lib/thumb/v6-m/nofp/libg_nano.a(lib_a-findfp.o)
 .ARM.attributes
                0x000000000000069f       0x2c /usr/lib/gcc/arm-none-eabi/8.3.1/../../../arm-none-eabi/lib/thumb/v6-m/nofp/libg_nano.a(lib_a-fvwrite.o)
 .ARM.attributes
                0x00000000000006cb       0x2c /usr/lib/gcc/arm-none-eabi/8.3.1/../../../arm-none-eabi/lib/thumb/v6-m/nofp/libg_nano.a(lib_a-fwalk.o)
 .ARM.attributes
                0x00000000000006f7       0x2c /usr/lib/gcc/arm-none-eabi/8.3.1/../../../arm-none-eabi/lib/thumb/v6-m/nofp/libg_nano.a(lib_a-makebuf.o)
 .ARM.attributes
                0x0000000000000723       0x2c /usr/lib/gcc/arm-none-eabi/8.3.1/../../../arm-none-eabi/lib/thumb/v6-m/nofp/libg_nano.a(lib_a-memchr-stub.o)
 .ARM.attributes
                0x000000000000074f       0x2c /usr/lib/gcc/arm-none-eabi/8.3.1/../../../arm-none-eabi/lib/thumb/v6-m/nofp/libg_nano.a(lib_a-memmove.o)
 .ARM.attributes
                0x000000000000077b       0x2c /usr/lib/gcc/arm-none-eabi/8.3.1/../../../arm-none-eabi/lib/thumb/v6-m/nofp/libg_nano.a(lib_a-memset.o)
 .ARM.attributes
                0x00000000000007a7       0x2c /usr/lib/gcc/arm-none-eabi/8.3.1/../../../arm-none-eabi/lib/thumb/v6-m/nofp/libg_nano.a(lib_a-mlock.o)
 .ARM.attributes
                0x00000000000007d3       0x2c /usr/lib/gcc/arm-none-eabi/8.3.1/../../../arm-none-eabi/lib/thumb/v6-m/nofp/libg_nano.a(lib_a-nano-reallocr.o)
 .ARM.attributes
                0x00000000000007ff       0x2c /usr/lib/gcc/arm-none-eabi/8.3.1/../../../arm-none-eabi/lib/thumb/v6-m/nofp/libg_nano.a(lib_a-signal.o)
 .ARM.attributes
                0x000000000000082b       0x2c /usr/lib/gcc/arm-none-eabi/8.3.1/../../../arm-none-eabi/lib/thumb/v6-m/nofp/libg_nano.a(lib_a-signalr.o)
 .ARM.attributes
                0x0000000000000857       0x2c /usr/lib/gcc/arm-none-eabi/8.3.1/../../../arm-none-eabi/lib/thumb/v6-m/nofp/libg_nano.a(lib_a-stdio.o)
 .ARM.attributes
                0x0000000000000883       0x2c /usr/lib/gcc/arm-none-eabi/8.3.1/../../../arm-none-eabi/lib/thumb/v6-m/nofp/libg_nano.a(lib_a-nano-msizer.o)
 .ARM.attributes
                0x00000000000008af       0x2c /usr/lib/gcc/arm-none-eabi/8.3.1/../../../arm-none-eabi/lib/thumb/v6-m/nofp/libg_nano.a(lib_a-reent.o)
 .ARM.attributes
                0x00000000000008db       0x2c /usr/lib/gcc/arm-none-eabi/8.3.1/../../../arm-none-eabi/lib/thumb/v6-m/nofp/libg_nano.a(lib_a-memcmp.o)
 .ARM.attributes
                0x0000000000000907       0x2c /usr/lib/gcc/arm-none-eabi/8.3.1/../../../arm-none-eabi/lib/thumb/v6-m/nofp/libg_nano.a(lib_a-strlen-stub.o)

.debug_frame    0x0000000000000000     0x28a4
 .debug_frame   0x0000000000000000     0x1a34 /tmp/ccxW9Zd7.ltrans0.ltrans.o
 .debug_frame   0x0000000000001a34       0x84 .build/obj_sofle_rev1_EGF2/serial_protocol.a(serial_protocol.o)
 .debug_frame   0x0000000000001ab8      0x17c .build/obj_sofle_rev1_EGF2/serial_vendor.a(serial_vendor.o)
 .debug_frame   0x0000000000001c34      0x140 .build/obj_sofle_rev1_EGF2/i2c_master.a(i2c_master.o)
 .debug_frame   0x0000000000001d74       0x28 /usr/lib/gcc/arm-none-eabi/8.3.1/thumb/v6-m/nofp/libgcc.a(_fixunssfsi.o)
 .debug_frame   0x0000000000001d9c       0x38 /usr/lib/gcc/arm-none-eabi/8.3.1/thumb/v6-m/nofp/libgcc.a(divsf3.o)
 .debug_frame   0x0000000000001dd4       0x38 /usr/lib/gcc/arm-none-eabi/8.3.1/thumb/v6-m/nofp/libgcc.a(mulsf3.o)
 .debug_frame   0x0000000000001e0c       0x3c /usr/lib/gcc/arm-none-eabi/8.3.1/thumb/v6-m/nofp/libgcc.a(subsf3.o)
 .debug_frame   0x0000000000001e48       0x20 /usr/lib/gcc/arm-none-eabi/8.3.1/thumb/v6-m/nofp/libgcc.a(fixsfsi.o)
 .debug_frame   0x0000000000001e68       0x2c /usr/lib/gcc/arm-none-eabi/8.3.1/thumb/v6-m/nofp/libgcc.a(floatunsisf.o)
 .debug_frame   0x0000000000001e94       0x2c /usr/lib/gcc/arm-none-eabi/8.3.1/thumb/v6-m/nofp/libgcc.a(eqsf2.o)
 .debug_frame   0x0000000000001ec0       0x30 /usr/lib/gcc/arm-none-eabi/8.3.1/thumb/v6-m/nofp/libgcc.a(gesf2.o)
 .debug_frame   0x0000000000001ef0       0x30 /usr/lib/gcc/arm-none-eabi/8.3.1/thumb/v6-m/nofp/libgcc.a(lesf2.o)
 .debug_frame   0x0000000000001f20       0x2c /usr/lib/gcc/arm-none-eabi/8.3.1/thumb/v6-m/nofp/libgcc.a(floatsisf.o)
 .debug_frame   0x0000000000001f4c       0x34 /usr/lib/gcc/arm-none-eabi/8.3.1/../../../arm-none-eabi/lib/thumb/v6-m/nofp/libg_nano.a(lib_a-memcpy-stub.o)
 .debug_frame   0x0000000000001f80       0x48 /usr/lib/gcc/arm-none-eabi/8.3.1/../../../arm-none-eabi/lib/thumb/v6-m/nofp/libg_nano.a(lib_a-rand.o)
 .debug_frame   0x0000000000001fc8       0x44 /usr/lib/gcc/arm-none-eabi/8.3.1/../../../arm-none-eabi/lib/thumb/v6-m/nofp/libg_nano.a(lib_a-assert.o)
 .debug_frame   0x000000000000200c       0x48 /usr/lib/gcc/arm-none-eabi/8.3.1/../../../arm-none-eabi/lib/thumb/v6-m/nofp/libg_nano.a(lib_a-fprintf.o)
 .debug_frame   0x0000000000002054       0x40 /usr/lib/gcc/arm-none-eabi/8.3.1/../../../arm-none-eabi/lib/thumb/v6-m/nofp/libg_nano.a(lib_a-malloc.o)
 .debug_frame   0x0000000000002094       0x2c /usr/lib/gcc/arm-none-eabi/8.3.1/../../../arm-none-eabi/lib/thumb/v6-m/nofp/libg_nano.a(lib_a-nano-freer.o)
 .debug_frame   0x00000000000020c0       0x30 /usr/lib/gcc/arm-none-eabi/8.3.1/../../../arm-none-eabi/lib/thumb/v6-m/nofp/libg_nano.a(lib_a-nano-mallocr.o)
 .debug_frame   0x00000000000020f0       0xa4 /usr/lib/gcc/arm-none-eabi/8.3.1/../../../arm-none-eabi/lib/thumb/v6-m/nofp/libg_nano.a(lib_a-nano-vfprintf.o)
 .debug_frame   0x0000000000002194       0x64 /usr/lib/gcc/arm-none-eabi/8.3.1/../../../arm-none-eabi/lib/thumb/v6-m/nofp/libg_nano.a(lib_a-nano-vfprintf_i.o)
 .debug_frame   0x00000000000021f8       0x48 /usr/lib/gcc/arm-none-eabi/8.3.1/../../../arm-none-eabi/lib/thumb/v6-m/nofp/libg_nano.a(lib_a-wbuf.o)
 .debug_frame   0x0000000000002240       0x2c /usr/lib/gcc/arm-none-eabi/8.3.1/../../../arm-none-eabi/lib/thumb/v6-m/nofp/libg_nano.a(lib_a-wsetup.o)
 .debug_frame   0x000000000000226c       0x28 /usr/lib/gcc/arm-none-eabi/8.3.1/../../../arm-none-eabi/lib/thumb/v6-m/nofp/libg_nano.a(lib_a-abort.o)
 .debug_frame   0x0000000000002294       0x68 /usr/lib/gcc/arm-none-eabi/8.3.1/../../../arm-none-eabi/lib/thumb/v6-m/nofp/libg_nano.a(lib_a-fflush.o)
 .debug_frame   0x00000000000022fc      0x14c /usr/lib/gcc/arm-none-eabi/8.3.1/../../../arm-none-eabi/lib/thumb/v6-m/nofp/libg_nano.a(lib_a-findfp.o)
 .debug_frame   0x0000000000002448       0x3c /usr/lib/gcc/arm-none-eabi/8.3.1/../../../arm-none-eabi/lib/thumb/v6-m/nofp/libg_nano.a(lib_a-fvwrite.o)
 .debug_frame   0x0000000000002484       0x5c /usr/lib/gcc/arm-none-eabi/8.3.1/../../../arm-none-eabi/lib/thumb/v6-m/nofp/libg_nano.a(lib_a-fwalk.o)
 .debug_frame   0x00000000000024e0       0x50 /usr/lib/gcc/arm-none-eabi/8.3.1/../../../arm-none-eabi/lib/thumb/v6-m/nofp/libg_nano.a(lib_a-makebuf.o)
 .debug_frame   0x0000000000002530       0x2c /usr/lib/gcc/arm-none-eabi/8.3.1/../../../arm-none-eabi/lib/thumb/v6-m/nofp/libg_nano.a(lib_a-memchr-stub.o)
 .debug_frame   0x000000000000255c       0x34 /usr/lib/gcc/arm-none-eabi/8.3.1/../../../arm-none-eabi/lib/thumb/v6-m/nofp/libg_nano.a(lib_a-memmove.o)
 .debug_frame   0x0000000000002590       0x30 /usr/lib/gcc/arm-none-eabi/8.3.1/../../../arm-none-eabi/lib/thumb/v6-m/nofp/libg_nano.a(lib_a-memset.o)
 .debug_frame   0x00000000000025c0       0x30 /usr/lib/gcc/arm-none-eabi/8.3.1/../../../arm-none-eabi/lib/thumb/v6-m/nofp/libg_nano.a(lib_a-mlock.o)
 .debug_frame   0x00000000000025f0       0x30 /usr/lib/gcc/arm-none-eabi/8.3.1/../../../arm-none-eabi/lib/thumb/v6-m/nofp/libg_nano.a(lib_a-nano-reallocr.o)
 .debug_frame   0x0000000000002620       0xf4 /usr/lib/gcc/arm-none-eabi/8.3.1/../../../arm-none-eabi/lib/thumb/v6-m/nofp/libg_nano.a(lib_a-signal.o)
 .debug_frame   0x0000000000002714       0x44 /usr/lib/gcc/arm-none-eabi/8.3.1/../../../arm-none-eabi/lib/thumb/v6-m/nofp/libg_nano.a(lib_a-signalr.o)
 .debug_frame   0x0000000000002758       0x90 /usr/lib/gcc/arm-none-eabi/8.3.1/../../../arm-none-eabi/lib/thumb/v6-m/nofp/libg_nano.a(lib_a-stdio.o)
 .debug_frame   0x00000000000027e8       0x20 /usr/lib/gcc/arm-none-eabi/8.3.1/../../../arm-none-eabi/lib/thumb/v6-m/nofp/libg_nano.a(lib_a-nano-msizer.o)
 .debug_frame   0x0000000000002808       0x48 /usr/lib/gcc/arm-none-eabi/8.3.1/../../../arm-none-eabi/lib/thumb/v6-m/nofp/libg_nano.a(lib_a-reent.o)
 .debug_frame   0x0000000000002850       0x2c /usr/lib/gcc/arm-none-eabi/8.3.1/../../../arm-none-eabi/lib/thumb/v6-m/nofp/libg_nano.a(lib_a-memcmp.o)
 .debug_frame   0x000000000000287c       0x28 /usr/lib/gcc/arm-none-eabi/8.3.1/../../../arm-none-eabi/lib/thumb/v6-m/nofp/libg_nano.a(lib_a-strlen-stub.o)

Cross Reference Table

Symbol                                            File
BOOT2_ROM                                         /tmp/ccxW9Zd7.ltrans0.ltrans.o
                                                  .build/obj_sofle_rev1/platforms/chibios/vendors/RP/stage2_bootloaders.o (symbol from plugin)
                                                  .build/obj_sofle_rev1_EGF2/wear_leveling_rp2040_flash.o (symbol from plugin)
BusFault_Handler                                  .build/obj_sofle_rev1_EGF2/./lib/chibios/os/common/startup/ARMCMx/compilers/GCC/vectors.o
CIE1931_CURVE                                     .build/obj_sofle_rev1_EGF2/quantum/led_tables.o (symbol from plugin)
                                                  .build/obj_sofle_rev1_EGF2/quantum/color.o (symbol from plugin)
ConfigurationDescriptor                           .build/obj_sofle_rev1_EGF2/usb_descriptor.o (symbol from plugin)
DebugMon_Handler                                  .build/obj_sofle_rev1_EGF2/./lib/chibios/os/common/startup/ARMCMx/compilers/GCC/vectors.o
DeviceDescriptor                                  .build/obj_sofle_rev1_EGF2/usb_descriptor.o (symbol from plugin)
HardFault_Handler                                 .build/obj_sofle_rev1_EGF2/./lib/chibios/os/common/startup/ARMCMx/compilers/GCC/vectors.o
I2CD2                                             /tmp/ccxW9Zd7.ltrans0.ltrans.o
                                                  .build/obj_sofle_rev1/lib/chibios-contrib/os/hal/ports/RP/LLD/I2Cv1/hal_i2c_lld.o (symbol from plugin)
                                                  .build/obj_sofle_rev1_EGF2/i2c_master.a(i2c_master.o)
KeyboardReport                                    .build/obj_sofle_rev1_EGF2/usb_descriptor.o (symbol from plugin)
LanguageString                                    .build/obj_sofle_rev1_EGF2/usb_descriptor.o (symbol from plugin)
ManufacturerString                                .build/obj_sofle_rev1_EGF2/usb_descriptor.o (symbol from plugin)
MemManage_Handler                                 .build/obj_sofle_rev1_EGF2/./lib/chibios/os/common/startup/ARMCMx/compilers/GCC/vectors.o
NMI_Handler                                       /tmp/ccxW9Zd7.ltrans0.ltrans.o
                                                  .build/obj_sofle_rev1/lib/chibios/os/common/ports/ARMv6-M-RP2/chcore.o (symbol from plugin)
                                                  .build/obj_sofle_rev1_EGF2/./lib/chibios/os/common/startup/ARMCMx/compilers/GCC/vectors.o
PendSV_Handler                                    .build/obj_sofle_rev1_EGF2/./lib/chibios/os/common/startup/ARMCMx/compilers/GCC/vectors.o
ProductString                                     .build/obj_sofle_rev1_EGF2/usb_descriptor.o (symbol from plugin)
RGBLED_GRADIENT_RANGES                            .build/obj_sofle_rev1_EGF2/quantum/rgblight/rgblight.o (symbol from plugin)
RGBLED_KNIGHT_INTERVALS                           .build/obj_sofle_rev1_EGF2/quantum/rgblight/rgblight.o (symbol from plugin)
RGBLED_RAINBOW_MOOD_INTERVALS                     .build/obj_sofle_rev1_EGF2/quantum/rgblight/rgblight.o (symbol from plugin)
RGBLED_RAINBOW_SWIRL_INTERVALS                    .build/obj_sofle_rev1_EGF2/quantum/rgblight/rgblight.o (symbol from plugin)
RGBLED_RGBTEST_INTERVALS                          .build/obj_sofle_rev1_EGF2/quantum/rgblight/rgblight.o (symbol from plugin)
RGBLED_SNAKE_INTERVALS                            .build/obj_sofle_rev1_EGF2/quantum/rgblight/rgblight.o (symbol from plugin)
RGBLED_TWINKLE_INTERVALS                          .build/obj_sofle_rev1_EGF2/quantum/rgblight/rgblight.o (symbol from plugin)
Reset_Handler                                     .build/obj_sofle_rev1_EGF2/./lib/chibios/os/common/startup/ARMCMx/compilers/GCC/vectors.o
SPID0                                             .build/obj_sofle_rev1/lib/chibios/os/hal/ports/RP/LLD/SPIv1/hal_spi_lld.o (symbol from plugin)
SVC_Handler                                       .build/obj_sofle_rev1_EGF2/./lib/chibios/os/common/startup/ARMCMx/compilers/GCC/vectors.o
SecureFault_Handler                               .build/obj_sofle_rev1_EGF2/./lib/chibios/os/common/startup/ARMCMx/compilers/GCC/vectors.o
SharedReport                                      .build/obj_sofle_rev1_EGF2/usb_descriptor.o (symbol from plugin)
SysTick_Handler                                   .build/obj_sofle_rev1_EGF2/./lib/chibios/os/common/startup/ARMCMx/compilers/GCC/vectors.o
SystemCoreClock                                   .build/obj_sofle_rev1/lib/chibios/os/hal/ports/RP/RP2040/hal_lld.o (symbol from plugin)
USBD1                                             .build/obj_sofle_rev1/lib/chibios-contrib/os/hal/ports/RP/LLD/USBDv1/hal_usb_lld.o (symbol from plugin)
                                                  .build/obj_sofle_rev1_EGF2/protocol/chibios/usb_util.o (symbol from plugin)
                                                  .build/obj_sofle_rev1_EGF2/protocol/chibios/chibios.o (symbol from plugin)
                                                  .build/obj_sofle_rev1_EGF2/protocol/chibios/usb_main.o (symbol from plugin)
UsageFault_Handler                                .build/obj_sofle_rev1_EGF2/./lib/chibios/os/common/startup/ARMCMx/compilers/GCC/vectors.o
Vector20                                          .build/obj_sofle_rev1_EGF2/./lib/chibios/os/common/startup/ARMCMx/compilers/GCC/vectors.o
Vector24                                          .build/obj_sofle_rev1_EGF2/./lib/chibios/os/common/startup/ARMCMx/compilers/GCC/vectors.o
Vector28                                          .build/obj_sofle_rev1_EGF2/./lib/chibios/os/common/startup/ARMCMx/compilers/GCC/vectors.o
Vector34                                          .build/obj_sofle_rev1_EGF2/./lib/chibios/os/common/startup/ARMCMx/compilers/GCC/vectors.o
Vector40                                          /tmp/ccxW9Zd7.ltrans0.ltrans.o
                                                  .build/obj_sofle_rev1/lib/chibios/os/hal/ports/RP/LLD/TIMERv1/hal_st_lld.o (symbol from plugin)
                                                  .build/obj_sofle_rev1_EGF2/./lib/chibios/os/common/startup/ARMCMx/compilers/GCC/vectors.o
Vector44                                          /tmp/ccxW9Zd7.ltrans0.ltrans.o
                                                  .build/obj_sofle_rev1/lib/chibios/os/hal/ports/RP/LLD/TIMERv1/hal_st_lld.o (symbol from plugin)
                                                  .build/obj_sofle_rev1_EGF2/./lib/chibios/os/common/startup/ARMCMx/compilers/GCC/vectors.o
Vector48                                          /tmp/ccxW9Zd7.ltrans0.ltrans.o
                                                  .build/obj_sofle_rev1/lib/chibios/os/hal/ports/RP/LLD/TIMERv1/hal_st_lld.o (symbol from plugin)
                                                  .build/obj_sofle_rev1_EGF2/./lib/chibios/os/common/startup/ARMCMx/compilers/GCC/vectors.o
Vector4C                                          /tmp/ccxW9Zd7.ltrans0.ltrans.o
                                                  .build/obj_sofle_rev1/lib/chibios/os/hal/ports/RP/LLD/TIMERv1/hal_st_lld.o (symbol from plugin)
                                                  .build/obj_sofle_rev1_EGF2/./lib/chibios/os/common/startup/ARMCMx/compilers/GCC/vectors.o
Vector50                                          .build/obj_sofle_rev1_EGF2/./lib/chibios/os/common/startup/ARMCMx/compilers/GCC/vectors.o
Vector54                                          /tmp/ccxW9Zd7.ltrans0.ltrans.o
                                                  .build/obj_sofle_rev1/lib/chibios-contrib/os/hal/ports/RP/LLD/USBDv1/hal_usb_lld.o (symbol from plugin)
                                                  .build/obj_sofle_rev1_EGF2/./lib/chibios/os/common/startup/ARMCMx/compilers/GCC/vectors.o
Vector58                                          .build/obj_sofle_rev1_EGF2/./lib/chibios/os/common/startup/ARMCMx/compilers/GCC/vectors.o
Vector5C                                          .build/obj_sofle_rev1_EGF2/serial_vendor.a(serial_vendor.o)
Vector60                                          .build/obj_sofle_rev1_EGF2/./lib/chibios/os/common/startup/ARMCMx/compilers/GCC/vectors.o
Vector64                                          .build/obj_sofle_rev1_EGF2/./lib/chibios/os/common/startup/ARMCMx/compilers/GCC/vectors.o
Vector68                                          .build/obj_sofle_rev1_EGF2/./lib/chibios/os/common/startup/ARMCMx/compilers/GCC/vectors.o
Vector6C                                          /tmp/ccxW9Zd7.ltrans0.ltrans.o
                                                  .build/obj_sofle_rev1/lib/chibios/os/hal/ports/RP/LLD/DMAv1/rp_dma.o (symbol from plugin)
                                                  .build/obj_sofle_rev1_EGF2/./lib/chibios/os/common/startup/ARMCMx/compilers/GCC/vectors.o
Vector70                                          /tmp/ccxW9Zd7.ltrans0.ltrans.o
                                                  .build/obj_sofle_rev1/lib/chibios/os/hal/ports/RP/LLD/DMAv1/rp_dma.o (symbol from plugin)
                                                  .build/obj_sofle_rev1_EGF2/./lib/chibios/os/common/startup/ARMCMx/compilers/GCC/vectors.o
Vector74                                          .build/obj_sofle_rev1_EGF2/./lib/chibios/os/common/startup/ARMCMx/compilers/GCC/vectors.o
Vector78                                          .build/obj_sofle_rev1_EGF2/./lib/chibios/os/common/startup/ARMCMx/compilers/GCC/vectors.o
Vector7C                                          /tmp/ccxW9Zd7.ltrans0.ltrans.o
                                                  .build/obj_sofle_rev1/lib/chibios/os/common/ports/ARMv6-M-RP2/chcore.o (symbol from plugin)
                                                  .build/obj_sofle_rev1_EGF2/./lib/chibios/os/common/startup/ARMCMx/compilers/GCC/vectors.o
Vector80                                          /tmp/ccxW9Zd7.ltrans0.ltrans.o
                                                  .build/obj_sofle_rev1/lib/chibios/os/common/ports/ARMv6-M-RP2/chcore.o (symbol from plugin)
                                                  .build/obj_sofle_rev1_EGF2/./lib/chibios/os/common/startup/ARMCMx/compilers/GCC/vectors.o
Vector84                                          .build/obj_sofle_rev1_EGF2/./lib/chibios/os/common/startup/ARMCMx/compilers/GCC/vectors.o
Vector88                                          .build/obj_sofle_rev1_EGF2/./lib/chibios/os/common/startup/ARMCMx/compilers/GCC/vectors.o
Vector8C                                          .build/obj_sofle_rev1_EGF2/./lib/chibios/os/common/startup/ARMCMx/compilers/GCC/vectors.o
Vector90                                          .build/obj_sofle_rev1_EGF2/./lib/chibios/os/common/startup/ARMCMx/compilers/GCC/vectors.o
Vector94                                          .build/obj_sofle_rev1_EGF2/./lib/chibios/os/common/startup/ARMCMx/compilers/GCC/vectors.o
Vector98                                          .build/obj_sofle_rev1_EGF2/./lib/chibios/os/common/startup/ARMCMx/compilers/GCC/vectors.o
Vector9C                                          .build/obj_sofle_rev1_EGF2/./lib/chibios/os/common/startup/ARMCMx/compilers/GCC/vectors.o
VectorA0                                          /tmp/ccxW9Zd7.ltrans0.ltrans.o
                                                  .build/obj_sofle_rev1/lib/chibios-contrib/os/hal/ports/RP/LLD/I2Cv1/hal_i2c_lld.o (symbol from plugin)
                                                  .build/obj_sofle_rev1_EGF2/./lib/chibios/os/common/startup/ARMCMx/compilers/GCC/vectors.o
VectorA4                                          .build/obj_sofle_rev1_EGF2/./lib/chibios/os/common/startup/ARMCMx/compilers/GCC/vectors.o
VectorA8                                          .build/obj_sofle_rev1_EGF2/./lib/chibios/os/common/startup/ARMCMx/compilers/GCC/vectors.o
VectorAC                                          .build/obj_sofle_rev1_EGF2/./lib/chibios/os/common/startup/ARMCMx/compilers/GCC/vectors.o
VectorB0                                          .build/obj_sofle_rev1_EGF2/./lib/chibios/os/common/startup/ARMCMx/compilers/GCC/vectors.o
VectorB4                                          .build/obj_sofle_rev1_EGF2/./lib/chibios/os/common/startup/ARMCMx/compilers/GCC/vectors.o
VectorB8                                          .build/obj_sofle_rev1_EGF2/./lib/chibios/os/common/startup/ARMCMx/compilers/GCC/vectors.o
VectorBC                                          .build/obj_sofle_rev1_EGF2/./lib/chibios/os/common/startup/ARMCMx/compilers/GCC/vectors.o
__aeabi_cfcmpeq                                   /usr/lib/gcc/arm-none-eabi/8.3.1/thumb/v6-m/nofp/libgcc.a(_arm_cmpsf2.o)
__aeabi_cfcmple                                   /usr/lib/gcc/arm-none-eabi/8.3.1/thumb/v6-m/nofp/libgcc.a(_arm_cmpsf2.o)
__aeabi_cfrcmple                                  /usr/lib/gcc/arm-none-eabi/8.3.1/thumb/v6-m/nofp/libgcc.a(_arm_cmpsf2.o)
__aeabi_f2iz                                      /usr/lib/gcc/arm-none-eabi/8.3.1/thumb/v6-m/nofp/libgcc.a(fixsfsi.o)
                                                  /usr/lib/gcc/arm-none-eabi/8.3.1/thumb/v6-m/nofp/libgcc.a(_fixunssfsi.o)
__aeabi_f2uiz                                     /usr/lib/gcc/arm-none-eabi/8.3.1/thumb/v6-m/nofp/libgcc.a(_fixunssfsi.o)
                                                  /tmp/ccxW9Zd7.ltrans0.ltrans.o
                                                  .build/obj_sofle_rev1_EGF2/serial_vendor.a(serial_vendor.o)
__aeabi_fcmpeq                                    /usr/lib/gcc/arm-none-eabi/8.3.1/thumb/v6-m/nofp/libgcc.a(_arm_cmpsf2.o)
__aeabi_fcmpge                                    /usr/lib/gcc/arm-none-eabi/8.3.1/thumb/v6-m/nofp/libgcc.a(_arm_cmpsf2.o)
                                                  /usr/lib/gcc/arm-none-eabi/8.3.1/thumb/v6-m/nofp/libgcc.a(_fixunssfsi.o)
__aeabi_fcmpgt                                    /usr/lib/gcc/arm-none-eabi/8.3.1/thumb/v6-m/nofp/libgcc.a(_arm_cmpsf2.o)
                                                  /tmp/ccxW9Zd7.ltrans0.ltrans.o
__aeabi_fcmple                                    /usr/lib/gcc/arm-none-eabi/8.3.1/thumb/v6-m/nofp/libgcc.a(_arm_cmpsf2.o)
__aeabi_fcmplt                                    /usr/lib/gcc/arm-none-eabi/8.3.1/thumb/v6-m/nofp/libgcc.a(_arm_cmpsf2.o)
__aeabi_fdiv                                      /usr/lib/gcc/arm-none-eabi/8.3.1/thumb/v6-m/nofp/libgcc.a(divsf3.o)
                                                  /tmp/ccxW9Zd7.ltrans0.ltrans.o
                                                  .build/obj_sofle_rev1_EGF2/serial_vendor.a(serial_vendor.o)
__aeabi_fmul                                      /usr/lib/gcc/arm-none-eabi/8.3.1/thumb/v6-m/nofp/libgcc.a(mulsf3.o)
                                                  /tmp/ccxW9Zd7.ltrans0.ltrans.o
                                                  .build/obj_sofle_rev1_EGF2/serial_vendor.a(serial_vendor.o)
__aeabi_fsub                                      /usr/lib/gcc/arm-none-eabi/8.3.1/thumb/v6-m/nofp/libgcc.a(subsf3.o)
                                                  /tmp/ccxW9Zd7.ltrans0.ltrans.o
                                                  /usr/lib/gcc/arm-none-eabi/8.3.1/thumb/v6-m/nofp/libgcc.a(_fixunssfsi.o)
                                                  .build/obj_sofle_rev1_EGF2/serial_vendor.a(serial_vendor.o)
__aeabi_i2f                                       /usr/lib/gcc/arm-none-eabi/8.3.1/thumb/v6-m/nofp/libgcc.a(floatsisf.o)
                                                  /tmp/ccxW9Zd7.ltrans0.ltrans.o
__aeabi_idiv0                                     /usr/lib/gcc/arm-none-eabi/8.3.1/thumb/v6-m/nofp/libgcc.a(_dvmd_tls.o)
                                                  .build/obj_sofle_rev1/./lib/pico-sdk/src/rp2_common/pico_divider/divider.o
__aeabi_ldiv0                                     /usr/lib/gcc/arm-none-eabi/8.3.1/thumb/v6-m/nofp/libgcc.a(_dvmd_tls.o)
                                                  .build/obj_sofle_rev1/./lib/pico-sdk/src/rp2_common/pico_divider/divider.o
__aeabi_ui2f                                      /usr/lib/gcc/arm-none-eabi/8.3.1/thumb/v6-m/nofp/libgcc.a(floatunsisf.o)
                                                  /tmp/ccxW9Zd7.ltrans0.ltrans.o
                                                  .build/obj_sofle_rev1_EGF2/serial_vendor.a(serial_vendor.o)
__assert                                          /usr/lib/gcc/arm-none-eabi/8.3.1/../../../arm-none-eabi/lib/thumb/v6-m/nofp/libg_nano.a(lib_a-assert.o)
__assert_func                                     /usr/lib/gcc/arm-none-eabi/8.3.1/../../../arm-none-eabi/lib/thumb/v6-m/nofp/libg_nano.a(lib_a-assert.o)
                                                  /usr/lib/gcc/arm-none-eabi/8.3.1/../../../arm-none-eabi/lib/thumb/v6-m/nofp/libg_nano.a(lib_a-rand.o)
__bss_base__                                      .build/obj_sofle_rev1_EGF2/./lib/chibios/os/common/startup/ARMCMx/compilers/GCC/crt0_v6m.o
__bss_end__                                       .build/obj_sofle_rev1_EGF2/./lib/chibios/os/common/startup/ARMCMx/compilers/GCC/crt0_v6m.o
__chibios_override___early_init                   .build/obj_sofle_rev1/lib/chibios/os/hal/boards/RP_PICO_RP2040/board.o (symbol from plugin)
                                                  .build/obj_sofle_rev1_EGF2/protocol/chibios/chibios.o (symbol from plugin)
__chibios_override_boardInit                      .build/obj_sofle_rev1/lib/chibios/os/hal/boards/RP_PICO_RP2040/board.o (symbol from plugin)
                                                  .build/obj_sofle_rev1_EGF2/protocol/chibios/chibios.o (symbol from plugin)
__clzsi2                                          /usr/lib/gcc/arm-none-eabi/8.3.1/thumb/v6-m/nofp/libgcc.a(_clzsi2.o)
                                                  /usr/lib/gcc/arm-none-eabi/8.3.1/thumb/v6-m/nofp/libgcc.a(floatsisf.o)
                                                  /usr/lib/gcc/arm-none-eabi/8.3.1/thumb/v6-m/nofp/libgcc.a(floatunsisf.o)
                                                  /usr/lib/gcc/arm-none-eabi/8.3.1/thumb/v6-m/nofp/libgcc.a(subsf3.o)
                                                  /usr/lib/gcc/arm-none-eabi/8.3.1/thumb/v6-m/nofp/libgcc.a(mulsf3.o)
                                                  /usr/lib/gcc/arm-none-eabi/8.3.1/thumb/v6-m/nofp/libgcc.a(divsf3.o)
__core_init                                       .build/obj_sofle_rev1_EGF2/./lib/chibios/os/oslib/src/chmemcore.o (symbol from plugin)
                                                  .build/obj_sofle_rev1/lib/chibios/os/rt/src/chsys.o (symbol from plugin)
__cpu_init                                        /tmp/ccxW9Zd7.ltrans0.ltrans.o
                                                  .build/obj_sofle_rev1/lib/chibios/os/common/startup/ARMCMx/compilers/GCC/crt1.o (symbol from plugin)
                                                  .build/obj_sofle_rev1_EGF2/./lib/chibios/os/common/startup/ARMCMx/compilers/GCC/crt0_v6m.o
__ctzsi2                                          /usr/lib/gcc/arm-none-eabi/8.3.1/thumb/v6-m/nofp/libgcc.a(_ctzsi2.o)
                                                  /tmp/ccxW9Zd7.ltrans0.ltrans.o
__cxa_pure_virtual                                .build/obj_sofle_rev1/lib/chibios/os/various/syscalls.o (symbol from plugin)
__data_base__                                     .build/obj_sofle_rev1_EGF2/./lib/chibios/os/common/startup/ARMCMx/compilers/GCC/crt0_v6m.o
__data_end__                                      .build/obj_sofle_rev1_EGF2/./lib/chibios/os/common/startup/ARMCMx/compilers/GCC/crt0_v6m.o
__default_exit                                    /tmp/ccxW9Zd7.ltrans0.ltrans.o
                                                  .build/obj_sofle_rev1/lib/chibios/os/common/startup/ARMCMx/compilers/GCC/crt1.o (symbol from plugin)
                                                  .build/obj_sofle_rev1_EGF2/./lib/chibios/os/common/startup/ARMCMx/compilers/GCC/crt0_v6m.o
__dso_handle                                      /tmp/ccxW9Zd7.ltrans0.ltrans.o
                                                  .build/obj_sofle_rev1/platforms/chibios/syscall-fallbacks.o (symbol from plugin)
__early_init                                      /tmp/ccxW9Zd7.ltrans0.ltrans.o
                                                  .build/obj_sofle_rev1_EGF2/protocol/chibios/chibios.o (symbol from plugin)
                                                  .build/obj_sofle_rev1_EGF2/./lib/chibios/os/common/startup/ARMCMx/compilers/GCC/crt0_v6m.o
__eqsf2                                           /usr/lib/gcc/arm-none-eabi/8.3.1/thumb/v6-m/nofp/libgcc.a(eqsf2.o)
                                                  /usr/lib/gcc/arm-none-eabi/8.3.1/thumb/v6-m/nofp/libgcc.a(_arm_cmpsf2.o)
__errno                                           /usr/lib/gcc/arm-none-eabi/8.3.1/../../../arm-none-eabi/lib/thumb/v6-m/nofp/libg_nano.a(lib_a-errno.o)
                                                  .build/obj_sofle_rev1/platforms/chibios/syscall-fallbacks.o (symbol from plugin)
__fini_array_base__                               .build/obj_sofle_rev1_EGF2/./lib/chibios/os/common/startup/ARMCMx/compilers/GCC/crt0_v6m.o
__fini_array_end__                                .build/obj_sofle_rev1_EGF2/./lib/chibios/os/common/startup/ARMCMx/compilers/GCC/crt0_v6m.o
__fixunssfsi                                      /usr/lib/gcc/arm-none-eabi/8.3.1/thumb/v6-m/nofp/libgcc.a(_fixunssfsi.o)
__fp_lock_all                                     /usr/lib/gcc/arm-none-eabi/8.3.1/../../../arm-none-eabi/lib/thumb/v6-m/nofp/libg_nano.a(lib_a-findfp.o)
__fp_unlock_all                                   /usr/lib/gcc/arm-none-eabi/8.3.1/../../../arm-none-eabi/lib/thumb/v6-m/nofp/libg_nano.a(lib_a-findfp.o)
__gesf2                                           /usr/lib/gcc/arm-none-eabi/8.3.1/thumb/v6-m/nofp/libgcc.a(gesf2.o)
                                                  /usr/lib/gcc/arm-none-eabi/8.3.1/thumb/v6-m/nofp/libgcc.a(_arm_cmpsf2.o)
__gnu_thumb1_case_shi                             /usr/lib/gcc/arm-none-eabi/8.3.1/thumb/v6-m/nofp/libgcc.a(_thumb1_case_shi.o)
                                                  /tmp/ccxW9Zd7.ltrans0.ltrans.o
__gnu_thumb1_case_uhi                             /usr/lib/gcc/arm-none-eabi/8.3.1/thumb/v6-m/nofp/libgcc.a(_thumb1_case_uhi.o)
                                                  /tmp/ccxW9Zd7.ltrans0.ltrans.o
__gnu_thumb1_case_uqi                             /usr/lib/gcc/arm-none-eabi/8.3.1/thumb/v6-m/nofp/libgcc.a(_thumb1_case_uqi.o)
                                                  /tmp/ccxW9Zd7.ltrans0.ltrans.o
__gtsf2                                           /usr/lib/gcc/arm-none-eabi/8.3.1/thumb/v6-m/nofp/libgcc.a(gesf2.o)
__heap_base__                                     /tmp/ccxW9Zd7.ltrans0.ltrans.o
                                                  .build/obj_sofle_rev1_EGF2/./lib/chibios/os/oslib/src/chmemcore.o (symbol from plugin)
__heap_end__                                      /tmp/ccxW9Zd7.ltrans0.ltrans.o
                                                  .build/obj_sofle_rev1_EGF2/./lib/chibios/os/oslib/src/chmemcore.o (symbol from plugin)
__init_array_base__                               .build/obj_sofle_rev1_EGF2/./lib/chibios/os/common/startup/ARMCMx/compilers/GCC/crt0_v6m.o
__init_array_end__                                .build/obj_sofle_rev1_EGF2/./lib/chibios/os/common/startup/ARMCMx/compilers/GCC/crt0_v6m.o
__init_ram_areas                                  /tmp/ccxW9Zd7.ltrans0.ltrans.o
                                                  .build/obj_sofle_rev1/lib/chibios/os/common/startup/ARMCMx/compilers/GCC/crt1.o (symbol from plugin)
                                                  .build/obj_sofle_rev1_EGF2/./lib/chibios/os/common/startup/ARMCMx/compilers/GCC/crt0_v6m.o
__late_init                                       /tmp/ccxW9Zd7.ltrans0.ltrans.o
                                                  .build/obj_sofle_rev1_EGF2/platforms/chibios/bootloaders/rp2040.o (symbol from plugin)
                                                  .build/obj_sofle_rev1_EGF2/./lib/chibios/os/common/startup/ARMCMx/compilers/GCC/crt0_v6m.o
__lesf2                                           /usr/lib/gcc/arm-none-eabi/8.3.1/thumb/v6-m/nofp/libgcc.a(lesf2.o)
                                                  /usr/lib/gcc/arm-none-eabi/8.3.1/thumb/v6-m/nofp/libgcc.a(_arm_cmpsf2.o)
__ltsf2                                           /usr/lib/gcc/arm-none-eabi/8.3.1/thumb/v6-m/nofp/libgcc.a(lesf2.o)
__main_stack_base__                               .build/obj_sofle_rev1_EGF2/./lib/chibios/os/common/startup/ARMCMx/compilers/GCC/crt0_v6m.o
__main_stack_end__                                .build/obj_sofle_rev1_EGF2/./lib/chibios/os/common/startup/ARMCMx/compilers/GCC/vectors.o
                                                  .build/obj_sofle_rev1_EGF2/./lib/chibios/os/common/startup/ARMCMx/compilers/GCC/crt0_v6m.o
__malloc_free_list                                /usr/lib/gcc/arm-none-eabi/8.3.1/../../../arm-none-eabi/lib/thumb/v6-m/nofp/libg_nano.a(lib_a-nano-mallocr.o)
                                                  /usr/lib/gcc/arm-none-eabi/8.3.1/../../../arm-none-eabi/lib/thumb/v6-m/nofp/libg_nano.a(lib_a-nano-freer.o)
__malloc_lock                                     /usr/lib/gcc/arm-none-eabi/8.3.1/../../../arm-none-eabi/lib/thumb/v6-m/nofp/libg_nano.a(lib_a-mlock.o)
                                                  /usr/lib/gcc/arm-none-eabi/8.3.1/../../../arm-none-eabi/lib/thumb/v6-m/nofp/libg_nano.a(lib_a-nano-mallocr.o)
                                                  /usr/lib/gcc/arm-none-eabi/8.3.1/../../../arm-none-eabi/lib/thumb/v6-m/nofp/libg_nano.a(lib_a-nano-freer.o)
__malloc_sbrk_start                               /usr/lib/gcc/arm-none-eabi/8.3.1/../../../arm-none-eabi/lib/thumb/v6-m/nofp/libg_nano.a(lib_a-nano-mallocr.o)
__malloc_unlock                                   /usr/lib/gcc/arm-none-eabi/8.3.1/../../../arm-none-eabi/lib/thumb/v6-m/nofp/libg_nano.a(lib_a-mlock.o)
                                                  /usr/lib/gcc/arm-none-eabi/8.3.1/../../../arm-none-eabi/lib/thumb/v6-m/nofp/libg_nano.a(lib_a-nano-mallocr.o)
                                                  /usr/lib/gcc/arm-none-eabi/8.3.1/../../../arm-none-eabi/lib/thumb/v6-m/nofp/libg_nano.a(lib_a-nano-freer.o)
__nesf2                                           /usr/lib/gcc/arm-none-eabi/8.3.1/thumb/v6-m/nofp/libgcc.a(eqsf2.o)
__pal_lld_init                                    .build/obj_sofle_rev1/lib/chibios/os/hal/ports/RP/LLD/GPIOv1/hal_pal_lld.o (symbol from plugin)
                                                  .build/obj_sofle_rev1/lib/chibios/os/hal/src/hal.o (symbol from plugin)
__port_exit_from_isr                              .build/obj_sofle_rev1_EGF2/./lib/chibios/os/common/ports/ARMv6-M-RP2/compilers/GCC/chcoreasm.o
                                                  /tmp/ccxW9Zd7.ltrans0.ltrans.o
                                                  .build/obj_sofle_rev1/lib/chibios/os/common/ports/ARMv6-M-RP2/chcore.o (symbol from plugin)
__port_irq_epilogue                               /tmp/ccxW9Zd7.ltrans0.ltrans.o
                                                  .build/obj_sofle_rev1/lib/chibios/os/common/ports/ARMv6-M-RP2/chcore.o (symbol from plugin)
                                                  .build/obj_sofle_rev1/lib/chibios-contrib/os/hal/ports/RP/LLD/USBDv1/hal_usb_lld.o (symbol from plugin)
                                                  .build/obj_sofle_rev1/lib/chibios-contrib/os/hal/ports/RP/LLD/I2Cv1/hal_i2c_lld.o (symbol from plugin)
                                                  .build/obj_sofle_rev1/lib/chibios/os/hal/ports/RP/LLD/TIMERv1/hal_st_lld.o (symbol from plugin)
                                                  .build/obj_sofle_rev1/lib/chibios/os/hal/ports/RP/LLD/DMAv1/rp_dma.o (symbol from plugin)
                                                  .build/obj_sofle_rev1_EGF2/serial_vendor.a(serial_vendor.o)
__port_spinlock_release                           /tmp/ccxW9Zd7.ltrans0.ltrans.o
                                                  .build/obj_sofle_rev1/lib/chibios/os/common/ports/ARMv6-M-RP2/chcore.o (symbol from plugin)
                                                  .build/obj_sofle_rev1_EGF2/./lib/chibios/os/common/ports/ARMv6-M-RP2/compilers/GCC/chcoreasm.o
__port_spinlock_take                              .build/obj_sofle_rev1/lib/chibios/os/common/ports/ARMv6-M-RP2/chcore.o (symbol from plugin)
__port_switch                                     .build/obj_sofle_rev1_EGF2/./lib/chibios/os/common/ports/ARMv6-M-RP2/compilers/GCC/chcoreasm.o
                                                  /tmp/ccxW9Zd7.ltrans0.ltrans.o
                                                  .build/obj_sofle_rev1/lib/chibios/os/rt/src/chschd.o (symbol from plugin)
__port_switch_from_isr                            .build/obj_sofle_rev1_EGF2/./lib/chibios/os/common/ports/ARMv6-M-RP2/compilers/GCC/chcoreasm.o
                                                  /tmp/ccxW9Zd7.ltrans0.ltrans.o
                                                  .build/obj_sofle_rev1/lib/chibios/os/common/ports/ARMv6-M-RP2/chcore.o (symbol from plugin)
__port_thread_start                               .build/obj_sofle_rev1_EGF2/./lib/chibios/os/common/ports/ARMv6-M-RP2/compilers/GCC/chcoreasm.o
                                                  /tmp/ccxW9Zd7.ltrans0.ltrans.o
                                                  .build/obj_sofle_rev1/lib/chibios/os/rt/src/chthreads.o (symbol from plugin)
__process_stack_base__                            .build/obj_sofle_rev1_EGF2/./lib/chibios/os/common/startup/ARMCMx/compilers/GCC/crt0_v6m.o
__process_stack_end__                             .build/obj_sofle_rev1_EGF2/./lib/chibios/os/common/startup/ARMCMx/compilers/GCC/crt0_v6m.o
__ram0_clear__                                    /tmp/ccxW9Zd7.ltrans0.ltrans.o
                                                  .build/obj_sofle_rev1/lib/chibios/os/common/startup/ARMCMx/compilers/GCC/crt1.o (symbol from plugin)
__ram0_init__                                     /tmp/ccxW9Zd7.ltrans0.ltrans.o
                                                  .build/obj_sofle_rev1/lib/chibios/os/common/startup/ARMCMx/compilers/GCC/crt1.o (symbol from plugin)
__ram0_init_text__                                /tmp/ccxW9Zd7.ltrans0.ltrans.o
                                                  .build/obj_sofle_rev1/lib/chibios/os/common/startup/ARMCMx/compilers/GCC/crt1.o (symbol from plugin)
__ram0_noinit__                                   /tmp/ccxW9Zd7.ltrans0.ltrans.o
                                                  .build/obj_sofle_rev1/lib/chibios/os/common/startup/ARMCMx/compilers/GCC/crt1.o (symbol from plugin)
__ram1_clear__                                    /tmp/ccxW9Zd7.ltrans0.ltrans.o
                                                  .build/obj_sofle_rev1/lib/chibios/os/common/startup/ARMCMx/compilers/GCC/crt1.o (symbol from plugin)
__ram1_init__                                     /tmp/ccxW9Zd7.ltrans0.ltrans.o
                                                  .build/obj_sofle_rev1/lib/chibios/os/common/startup/ARMCMx/compilers/GCC/crt1.o (symbol from plugin)
__ram1_init_text__                                /tmp/ccxW9Zd7.ltrans0.ltrans.o
                                                  .build/obj_sofle_rev1/lib/chibios/os/common/startup/ARMCMx/compilers/GCC/crt1.o (symbol from plugin)
__ram1_noinit__                                   /tmp/ccxW9Zd7.ltrans0.ltrans.o
                                                  .build/obj_sofle_rev1/lib/chibios/os/common/startup/ARMCMx/compilers/GCC/crt1.o (symbol from plugin)
__ram2_clear__                                    /tmp/ccxW9Zd7.ltrans0.ltrans.o
                                                  .build/obj_sofle_rev1/lib/chibios/os/common/startup/ARMCMx/compilers/GCC/crt1.o (symbol from plugin)
__ram2_init__                                     /tmp/ccxW9Zd7.ltrans0.ltrans.o
                                                  .build/obj_sofle_rev1/lib/chibios/os/common/startup/ARMCMx/compilers/GCC/crt1.o (symbol from plugin)
__ram2_init_text__                                /tmp/ccxW9Zd7.ltrans0.ltrans.o
                                                  .build/obj_sofle_rev1/lib/chibios/os/common/startup/ARMCMx/compilers/GCC/crt1.o (symbol from plugin)
__ram2_noinit__                                   /tmp/ccxW9Zd7.ltrans0.ltrans.o
                                                  .build/obj_sofle_rev1/lib/chibios/os/common/startup/ARMCMx/compilers/GCC/crt1.o (symbol from plugin)
__ram3_clear__                                    /tmp/ccxW9Zd7.ltrans0.ltrans.o
                                                  .build/obj_sofle_rev1/lib/chibios/os/common/startup/ARMCMx/compilers/GCC/crt1.o (symbol from plugin)
__ram3_init__                                     /tmp/ccxW9Zd7.ltrans0.ltrans.o
                                                  .build/obj_sofle_rev1/lib/chibios/os/common/startup/ARMCMx/compilers/GCC/crt1.o (symbol from plugin)
__ram3_init_text__                                /tmp/ccxW9Zd7.ltrans0.ltrans.o
                                                  .build/obj_sofle_rev1/lib/chibios/os/common/startup/ARMCMx/compilers/GCC/crt1.o (symbol from plugin)
__ram3_noinit__                                   /tmp/ccxW9Zd7.ltrans0.ltrans.o
                                                  .build/obj_sofle_rev1/lib/chibios/os/common/startup/ARMCMx/compilers/GCC/crt1.o (symbol from plugin)
__ram4_clear__                                    /tmp/ccxW9Zd7.ltrans0.ltrans.o
                                                  .build/obj_sofle_rev1/lib/chibios/os/common/startup/ARMCMx/compilers/GCC/crt1.o (symbol from plugin)
__ram4_init__                                     /tmp/ccxW9Zd7.ltrans0.ltrans.o
                                                  .build/obj_sofle_rev1/lib/chibios/os/common/startup/ARMCMx/compilers/GCC/crt1.o (symbol from plugin)
__ram4_init_text__                                /tmp/ccxW9Zd7.ltrans0.ltrans.o
                                                  .build/obj_sofle_rev1/lib/chibios/os/common/startup/ARMCMx/compilers/GCC/crt1.o (symbol from plugin)
__ram4_noinit__                                   /tmp/ccxW9Zd7.ltrans0.ltrans.o
                                                  .build/obj_sofle_rev1/lib/chibios/os/common/startup/ARMCMx/compilers/GCC/crt1.o (symbol from plugin)
__ram5_clear__                                    /tmp/ccxW9Zd7.ltrans0.ltrans.o
                                                  .build/obj_sofle_rev1/lib/chibios/os/common/startup/ARMCMx/compilers/GCC/crt1.o (symbol from plugin)
__ram5_init__                                     /tmp/ccxW9Zd7.ltrans0.ltrans.o
                                                  .build/obj_sofle_rev1/lib/chibios/os/common/startup/ARMCMx/compilers/GCC/crt1.o (symbol from plugin)
__ram5_init_text__                                /tmp/ccxW9Zd7.ltrans0.ltrans.o
                                                  .build/obj_sofle_rev1/lib/chibios/os/common/startup/ARMCMx/compilers/GCC/crt1.o (symbol from plugin)
__ram5_noinit__                                   /tmp/ccxW9Zd7.ltrans0.ltrans.o
                                                  .build/obj_sofle_rev1/lib/chibios/os/common/startup/ARMCMx/compilers/GCC/crt1.o (symbol from plugin)
__ram6_clear__                                    /tmp/ccxW9Zd7.ltrans0.ltrans.o
                                                  .build/obj_sofle_rev1/lib/chibios/os/common/startup/ARMCMx/compilers/GCC/crt1.o (symbol from plugin)
__ram6_init__                                     /tmp/ccxW9Zd7.ltrans0.ltrans.o
                                                  .build/obj_sofle_rev1/lib/chibios/os/common/startup/ARMCMx/compilers/GCC/crt1.o (symbol from plugin)
__ram6_init_text__                                /tmp/ccxW9Zd7.ltrans0.ltrans.o
                                                  .build/obj_sofle_rev1/lib/chibios/os/common/startup/ARMCMx/compilers/GCC/crt1.o (symbol from plugin)
__ram6_noinit__                                   /tmp/ccxW9Zd7.ltrans0.ltrans.o
                                                  .build/obj_sofle_rev1/lib/chibios/os/common/startup/ARMCMx/compilers/GCC/crt1.o (symbol from plugin)
__ram7_clear__                                    /tmp/ccxW9Zd7.ltrans0.ltrans.o
                                                  .build/obj_sofle_rev1/lib/chibios/os/common/startup/ARMCMx/compilers/GCC/crt1.o (symbol from plugin)
__ram7_init__                                     /tmp/ccxW9Zd7.ltrans0.ltrans.o
                                                  .build/obj_sofle_rev1/lib/chibios/os/common/startup/ARMCMx/compilers/GCC/crt1.o (symbol from plugin)
__ram7_init_text__                                /tmp/ccxW9Zd7.ltrans0.ltrans.o
                                                  .build/obj_sofle_rev1/lib/chibios/os/common/startup/ARMCMx/compilers/GCC/crt1.o (symbol from plugin)
__ram7_noinit__                                   /tmp/ccxW9Zd7.ltrans0.ltrans.o
                                                  .build/obj_sofle_rev1/lib/chibios/os/common/startup/ARMCMx/compilers/GCC/crt1.o (symbol from plugin)
__rp_dma_channels                                 .build/obj_sofle_rev1/lib/chibios/os/hal/ports/RP/LLD/DMAv1/rp_dma.o (symbol from plugin)
__sclose                                          /usr/lib/gcc/arm-none-eabi/8.3.1/../../../arm-none-eabi/lib/thumb/v6-m/nofp/libg_nano.a(lib_a-stdio.o)
                                                  /usr/lib/gcc/arm-none-eabi/8.3.1/../../../arm-none-eabi/lib/thumb/v6-m/nofp/libg_nano.a(lib_a-findfp.o)
__seofread                                        /usr/lib/gcc/arm-none-eabi/8.3.1/../../../arm-none-eabi/lib/thumb/v6-m/nofp/libg_nano.a(lib_a-stdio.o)
__sf_fake_stderr                                  /usr/lib/gcc/arm-none-eabi/8.3.1/../../../arm-none-eabi/lib/thumb/v6-m/nofp/libg_nano.a(lib_a-findfp.o)
                                                  /usr/lib/gcc/arm-none-eabi/8.3.1/../../../arm-none-eabi/lib/thumb/v6-m/nofp/libg_nano.a(lib_a-fflush.o)
                                                  /usr/lib/gcc/arm-none-eabi/8.3.1/../../../arm-none-eabi/lib/thumb/v6-m/nofp/libg_nano.a(lib_a-wsetup.o)
                                                  /usr/lib/gcc/arm-none-eabi/8.3.1/../../../arm-none-eabi/lib/thumb/v6-m/nofp/libg_nano.a(lib_a-wbuf.o)
                                                  /usr/lib/gcc/arm-none-eabi/8.3.1/../../../arm-none-eabi/lib/thumb/v6-m/nofp/libg_nano.a(lib_a-nano-vfprintf.o)
                                                  /usr/lib/gcc/arm-none-eabi/8.3.1/../../../arm-none-eabi/lib/thumb/v6-m/nofp/libg_nano.a(lib_a-impure.o)
__sf_fake_stdin                                   /usr/lib/gcc/arm-none-eabi/8.3.1/../../../arm-none-eabi/lib/thumb/v6-m/nofp/libg_nano.a(lib_a-findfp.o)
                                                  /usr/lib/gcc/arm-none-eabi/8.3.1/../../../arm-none-eabi/lib/thumb/v6-m/nofp/libg_nano.a(lib_a-fflush.o)
                                                  /usr/lib/gcc/arm-none-eabi/8.3.1/../../../arm-none-eabi/lib/thumb/v6-m/nofp/libg_nano.a(lib_a-wsetup.o)
                                                  /usr/lib/gcc/arm-none-eabi/8.3.1/../../../arm-none-eabi/lib/thumb/v6-m/nofp/libg_nano.a(lib_a-wbuf.o)
                                                  /usr/lib/gcc/arm-none-eabi/8.3.1/../../../arm-none-eabi/lib/thumb/v6-m/nofp/libg_nano.a(lib_a-nano-vfprintf.o)
                                                  /usr/lib/gcc/arm-none-eabi/8.3.1/../../../arm-none-eabi/lib/thumb/v6-m/nofp/libg_nano.a(lib_a-impure.o)
__sf_fake_stdout                                  /usr/lib/gcc/arm-none-eabi/8.3.1/../../../arm-none-eabi/lib/thumb/v6-m/nofp/libg_nano.a(lib_a-findfp.o)
                                                  /usr/lib/gcc/arm-none-eabi/8.3.1/../../../arm-none-eabi/lib/thumb/v6-m/nofp/libg_nano.a(lib_a-fflush.o)
                                                  /usr/lib/gcc/arm-none-eabi/8.3.1/../../../arm-none-eabi/lib/thumb/v6-m/nofp/libg_nano.a(lib_a-wsetup.o)
                                                  /usr/lib/gcc/arm-none-eabi/8.3.1/../../../arm-none-eabi/lib/thumb/v6-m/nofp/libg_nano.a(lib_a-wbuf.o)
                                                  /usr/lib/gcc/arm-none-eabi/8.3.1/../../../arm-none-eabi/lib/thumb/v6-m/nofp/libg_nano.a(lib_a-nano-vfprintf.o)
                                                  /usr/lib/gcc/arm-none-eabi/8.3.1/../../../arm-none-eabi/lib/thumb/v6-m/nofp/libg_nano.a(lib_a-impure.o)
__sflush_r                                        /usr/lib/gcc/arm-none-eabi/8.3.1/../../../arm-none-eabi/lib/thumb/v6-m/nofp/libg_nano.a(lib_a-fflush.o)
__sfmoreglue                                      /usr/lib/gcc/arm-none-eabi/8.3.1/../../../arm-none-eabi/lib/thumb/v6-m/nofp/libg_nano.a(lib_a-findfp.o)
__sfp                                             /usr/lib/gcc/arm-none-eabi/8.3.1/../../../arm-none-eabi/lib/thumb/v6-m/nofp/libg_nano.a(lib_a-findfp.o)
__sfp_lock_acquire                                /usr/lib/gcc/arm-none-eabi/8.3.1/../../../arm-none-eabi/lib/thumb/v6-m/nofp/libg_nano.a(lib_a-findfp.o)
__sfp_lock_release                                /usr/lib/gcc/arm-none-eabi/8.3.1/../../../arm-none-eabi/lib/thumb/v6-m/nofp/libg_nano.a(lib_a-findfp.o)
__sfputs_r                                        /usr/lib/gcc/arm-none-eabi/8.3.1/../../../arm-none-eabi/lib/thumb/v6-m/nofp/libg_nano.a(lib_a-nano-vfprintf.o)
__sfvwrite_r                                      /usr/lib/gcc/arm-none-eabi/8.3.1/../../../arm-none-eabi/lib/thumb/v6-m/nofp/libg_nano.a(lib_a-fvwrite.o)
                                                  /usr/lib/gcc/arm-none-eabi/8.3.1/../../../arm-none-eabi/lib/thumb/v6-m/nofp/libg_nano.a(lib_a-nano-vfprintf.o)
__sigtramp                                        /usr/lib/gcc/arm-none-eabi/8.3.1/../../../arm-none-eabi/lib/thumb/v6-m/nofp/libg_nano.a(lib_a-signal.o)
__sigtramp_r                                      /usr/lib/gcc/arm-none-eabi/8.3.1/../../../arm-none-eabi/lib/thumb/v6-m/nofp/libg_nano.a(lib_a-signal.o)
__sinit                                           /usr/lib/gcc/arm-none-eabi/8.3.1/../../../arm-none-eabi/lib/thumb/v6-m/nofp/libg_nano.a(lib_a-findfp.o)
                                                  /usr/lib/gcc/arm-none-eabi/8.3.1/../../../arm-none-eabi/lib/thumb/v6-m/nofp/libg_nano.a(lib_a-fflush.o)
                                                  /usr/lib/gcc/arm-none-eabi/8.3.1/../../../arm-none-eabi/lib/thumb/v6-m/nofp/libg_nano.a(lib_a-wsetup.o)
                                                  /usr/lib/gcc/arm-none-eabi/8.3.1/../../../arm-none-eabi/lib/thumb/v6-m/nofp/libg_nano.a(lib_a-wbuf.o)
                                                  /usr/lib/gcc/arm-none-eabi/8.3.1/../../../arm-none-eabi/lib/thumb/v6-m/nofp/libg_nano.a(lib_a-nano-vfprintf.o)
__sinit_lock_acquire                              /usr/lib/gcc/arm-none-eabi/8.3.1/../../../arm-none-eabi/lib/thumb/v6-m/nofp/libg_nano.a(lib_a-findfp.o)
__sinit_lock_release                              /usr/lib/gcc/arm-none-eabi/8.3.1/../../../arm-none-eabi/lib/thumb/v6-m/nofp/libg_nano.a(lib_a-findfp.o)
__smakebuf_r                                      /usr/lib/gcc/arm-none-eabi/8.3.1/../../../arm-none-eabi/lib/thumb/v6-m/nofp/libg_nano.a(lib_a-makebuf.o)
                                                  /usr/lib/gcc/arm-none-eabi/8.3.1/../../../arm-none-eabi/lib/thumb/v6-m/nofp/libg_nano.a(lib_a-wsetup.o)
__sprint_r                                        /usr/lib/gcc/arm-none-eabi/8.3.1/../../../arm-none-eabi/lib/thumb/v6-m/nofp/libg_nano.a(lib_a-nano-vfprintf.o)
__sread                                           /usr/lib/gcc/arm-none-eabi/8.3.1/../../../arm-none-eabi/lib/thumb/v6-m/nofp/libg_nano.a(lib_a-stdio.o)
                                                  /usr/lib/gcc/arm-none-eabi/8.3.1/../../../arm-none-eabi/lib/thumb/v6-m/nofp/libg_nano.a(lib_a-findfp.o)
__sseek                                           /usr/lib/gcc/arm-none-eabi/8.3.1/../../../arm-none-eabi/lib/thumb/v6-m/nofp/libg_nano.a(lib_a-stdio.o)
                                                  /usr/lib/gcc/arm-none-eabi/8.3.1/../../../arm-none-eabi/lib/thumb/v6-m/nofp/libg_nano.a(lib_a-findfp.o)
__swbuf                                           /usr/lib/gcc/arm-none-eabi/8.3.1/../../../arm-none-eabi/lib/thumb/v6-m/nofp/libg_nano.a(lib_a-wbuf.o)
__swbuf_r                                         /usr/lib/gcc/arm-none-eabi/8.3.1/../../../arm-none-eabi/lib/thumb/v6-m/nofp/libg_nano.a(lib_a-wbuf.o)
                                                  /usr/lib/gcc/arm-none-eabi/8.3.1/../../../arm-none-eabi/lib/thumb/v6-m/nofp/libg_nano.a(lib_a-nano-vfprintf.o)
__swhatbuf_r                                      /usr/lib/gcc/arm-none-eabi/8.3.1/../../../arm-none-eabi/lib/thumb/v6-m/nofp/libg_nano.a(lib_a-makebuf.o)
__swrite                                          /usr/lib/gcc/arm-none-eabi/8.3.1/../../../arm-none-eabi/lib/thumb/v6-m/nofp/libg_nano.a(lib_a-stdio.o)
                                                  /usr/lib/gcc/arm-none-eabi/8.3.1/../../../arm-none-eabi/lib/thumb/v6-m/nofp/libg_nano.a(lib_a-findfp.o)
__swsetup_r                                       /usr/lib/gcc/arm-none-eabi/8.3.1/../../../arm-none-eabi/lib/thumb/v6-m/nofp/libg_nano.a(lib_a-wsetup.o)
                                                  /usr/lib/gcc/arm-none-eabi/8.3.1/../../../arm-none-eabi/lib/thumb/v6-m/nofp/libg_nano.a(lib_a-fvwrite.o)
                                                  /usr/lib/gcc/arm-none-eabi/8.3.1/../../../arm-none-eabi/lib/thumb/v6-m/nofp/libg_nano.a(lib_a-wbuf.o)
                                                  /usr/lib/gcc/arm-none-eabi/8.3.1/../../../arm-none-eabi/lib/thumb/v6-m/nofp/libg_nano.a(lib_a-nano-vfprintf.o)
__textdata_base__                                 .build/obj_sofle_rev1_EGF2/./lib/chibios/os/common/startup/ARMCMx/compilers/GCC/crt0_v6m.o
__textvectors_base__                              .build/obj_sofle_rev1_EGF2/./lib/chibios/os/common/startup/ARMCMx/compilers/GCC/crt0_v6m.o
__thd_object_init                                 .build/obj_sofle_rev1/lib/chibios/os/rt/src/chthreads.o (symbol from plugin)
                                                  .build/obj_sofle_rev1/lib/chibios/os/rt/src/chinstances.o (symbol from plugin)
__vectors_base__                                  .build/obj_sofle_rev1_EGF2/./lib/chibios/os/common/startup/ARMCMx/compilers/GCC/crt0_v6m.o
__vectors_end__                                   .build/obj_sofle_rev1_EGF2/./lib/chibios/os/common/startup/ARMCMx/compilers/GCC/crt0_v6m.o
__wrap___aeabi_idiv                               .build/obj_sofle_rev1/./lib/pico-sdk/src/rp2_common/pico_divider/divider.o
                                                  /tmp/ccxW9Zd7.ltrans0.ltrans.o
                                                  /usr/lib/gcc/arm-none-eabi/8.3.1/../../../arm-none-eabi/lib/thumb/v6-m/nofp/libg_nano.a(lib_a-fvwrite.o)
__wrap___aeabi_idivmod                            .build/obj_sofle_rev1/./lib/pico-sdk/src/rp2_common/pico_divider/divider.o
                                                  /tmp/ccxW9Zd7.ltrans0.ltrans.o
__wrap___aeabi_ldivmod                            .build/obj_sofle_rev1/./lib/pico-sdk/src/rp2_common/pico_divider/divider.o
                                                  /tmp/ccxW9Zd7.ltrans0.ltrans.o
                                                  .build/obj_sofle_rev1_EGF2/i2c_master.a(i2c_master.o)
__wrap___aeabi_lmul                               .build/obj_sofle_rev1/./lib/pico-sdk/src/rp2_common/pico_int64_ops/pico_int64_ops_aeabi.o
                                                  /tmp/ccxW9Zd7.ltrans0.ltrans.o
                                                  /usr/lib/gcc/arm-none-eabi/8.3.1/../../../arm-none-eabi/lib/thumb/v6-m/nofp/libg_nano.a(lib_a-rand.o)
                                                  .build/obj_sofle_rev1_EGF2/i2c_master.a(i2c_master.o)
__wrap___aeabi_uidiv                              .build/obj_sofle_rev1/./lib/pico-sdk/src/rp2_common/pico_divider/divider.o
                                                  /tmp/ccxW9Zd7.ltrans0.ltrans.o
__wrap___aeabi_uidivmod                           .build/obj_sofle_rev1/./lib/pico-sdk/src/rp2_common/pico_divider/divider.o
                                                  /tmp/ccxW9Zd7.ltrans0.ltrans.o
                                                  /usr/lib/gcc/arm-none-eabi/8.3.1/../../../arm-none-eabi/lib/thumb/v6-m/nofp/libg_nano.a(lib_a-nano-vfprintf_i.o)
__wrap___aeabi_uldivmod                           .build/obj_sofle_rev1/./lib/pico-sdk/src/rp2_common/pico_divider/divider.o
                                                  /tmp/ccxW9Zd7.ltrans0.ltrans.o
                                                  .build/obj_sofle_rev1_EGF2/i2c_master.a(i2c_master.o)
_cleanup                                          /usr/lib/gcc/arm-none-eabi/8.3.1/../../../arm-none-eabi/lib/thumb/v6-m/nofp/libg_nano.a(lib_a-findfp.o)
_cleanup_r                                        /usr/lib/gcc/arm-none-eabi/8.3.1/../../../arm-none-eabi/lib/thumb/v6-m/nofp/libg_nano.a(lib_a-findfp.o)
                                                  /usr/lib/gcc/arm-none-eabi/8.3.1/../../../arm-none-eabi/lib/thumb/v6-m/nofp/libg_nano.a(lib_a-makebuf.o)
_close_r                                          /tmp/ccxW9Zd7.ltrans0.ltrans.o
                                                  .build/obj_sofle_rev1/lib/chibios/os/various/syscalls.o (symbol from plugin)
                                                  /usr/lib/gcc/arm-none-eabi/8.3.1/../../../arm-none-eabi/lib/thumb/v6-m/nofp/libg_nano.a(lib_a-stdio.o)
_crt0_entry                                       .build/obj_sofle_rev1_EGF2/./lib/chibios/os/common/startup/ARMCMx/compilers/GCC/crt0_v6m.o
                                                  .build/obj_sofle_rev1_EGF2/./lib/chibios/os/common/startup/ARMCMx/compilers/GCC/vectors.o
_ctype_                                           /usr/lib/gcc/arm-none-eabi/8.3.1/../../../arm-none-eabi/lib/thumb/v6-m/nofp/libg_nano.a(lib_a-ctype_.o)
                                                  /tmp/ccxW9Zd7.ltrans0.ltrans.o
                                                  .build/obj_sofle_rev1/lib/chibios/os/hal/lib/streams/chscanf.o (symbol from plugin)
                                                  .build/obj_sofle_rev1_EGF2/quantum/send_string/send_string.o (symbol from plugin)
_exit                                             /tmp/ccxW9Zd7.ltrans0.ltrans.o
                                                  /usr/lib/gcc/arm-none-eabi/8.3.1/../../../arm-none-eabi/lib/thumb/v6-m/nofp/libg_nano.a(lib_a-abort.o)
_fflush_r                                         /usr/lib/gcc/arm-none-eabi/8.3.1/../../../arm-none-eabi/lib/thumb/v6-m/nofp/libg_nano.a(lib_a-fflush.o)
                                                  /usr/lib/gcc/arm-none-eabi/8.3.1/../../../arm-none-eabi/lib/thumb/v6-m/nofp/libg_nano.a(lib_a-fvwrite.o)
                                                  /usr/lib/gcc/arm-none-eabi/8.3.1/../../../arm-none-eabi/lib/thumb/v6-m/nofp/libg_nano.a(lib_a-findfp.o)
                                                  /usr/lib/gcc/arm-none-eabi/8.3.1/../../../arm-none-eabi/lib/thumb/v6-m/nofp/libg_nano.a(lib_a-wbuf.o)
_fini                                             /tmp/ccxW9Zd7.ltrans0.ltrans.o
                                                  .build/obj_sofle_rev1/platforms/chibios/syscall-fallbacks.o (symbol from plugin)
_fiprintf_r                                       /usr/lib/gcc/arm-none-eabi/8.3.1/../../../arm-none-eabi/lib/thumb/v6-m/nofp/libg_nano.a(lib_a-fprintf.o)
_fprintf_r                                        /usr/lib/gcc/arm-none-eabi/8.3.1/../../../arm-none-eabi/lib/thumb/v6-m/nofp/libg_nano.a(lib_a-fprintf.o)
_free_r                                           /usr/lib/gcc/arm-none-eabi/8.3.1/../../../arm-none-eabi/lib/thumb/v6-m/nofp/libg_nano.a(lib_a-nano-freer.o)
                                                  /usr/lib/gcc/arm-none-eabi/8.3.1/../../../arm-none-eabi/lib/thumb/v6-m/nofp/libg_nano.a(lib_a-reent.o)
                                                  /usr/lib/gcc/arm-none-eabi/8.3.1/../../../arm-none-eabi/lib/thumb/v6-m/nofp/libg_nano.a(lib_a-nano-reallocr.o)
                                                  /usr/lib/gcc/arm-none-eabi/8.3.1/../../../arm-none-eabi/lib/thumb/v6-m/nofp/libg_nano.a(lib_a-fvwrite.o)
                                                  /usr/lib/gcc/arm-none-eabi/8.3.1/../../../arm-none-eabi/lib/thumb/v6-m/nofp/libg_nano.a(lib_a-fflush.o)
                                                  /usr/lib/gcc/arm-none-eabi/8.3.1/../../../arm-none-eabi/lib/thumb/v6-m/nofp/libg_nano.a(lib_a-wsetup.o)
                                                  /usr/lib/gcc/arm-none-eabi/8.3.1/../../../arm-none-eabi/lib/thumb/v6-m/nofp/libg_nano.a(lib_a-malloc.o)
_fstat_r                                          /tmp/ccxW9Zd7.ltrans0.ltrans.o
                                                  .build/obj_sofle_rev1/lib/chibios/os/various/syscalls.o (symbol from plugin)
                                                  /usr/lib/gcc/arm-none-eabi/8.3.1/../../../arm-none-eabi/lib/thumb/v6-m/nofp/libg_nano.a(lib_a-makebuf.o)
_fwalk                                            /usr/lib/gcc/arm-none-eabi/8.3.1/../../../arm-none-eabi/lib/thumb/v6-m/nofp/libg_nano.a(lib_a-fwalk.o)
                                                  /usr/lib/gcc/arm-none-eabi/8.3.1/../../../arm-none-eabi/lib/thumb/v6-m/nofp/libg_nano.a(lib_a-findfp.o)
_fwalk_reent                                      /usr/lib/gcc/arm-none-eabi/8.3.1/../../../arm-none-eabi/lib/thumb/v6-m/nofp/libg_nano.a(lib_a-fwalk.o)
                                                  /usr/lib/gcc/arm-none-eabi/8.3.1/../../../arm-none-eabi/lib/thumb/v6-m/nofp/libg_nano.a(lib_a-findfp.o)
                                                  /usr/lib/gcc/arm-none-eabi/8.3.1/../../../arm-none-eabi/lib/thumb/v6-m/nofp/libg_nano.a(lib_a-fflush.o)
_getpid                                           /tmp/ccxW9Zd7.ltrans0.ltrans.o
                                                  .build/obj_sofle_rev1/lib/chibios/os/various/syscalls.o (symbol from plugin)
                                                  /usr/lib/gcc/arm-none-eabi/8.3.1/../../../arm-none-eabi/lib/thumb/v6-m/nofp/libg_nano.a(lib_a-signalr.o)
_getpid_r                                         /usr/lib/gcc/arm-none-eabi/8.3.1/../../../arm-none-eabi/lib/thumb/v6-m/nofp/libg_nano.a(lib_a-signalr.o)
                                                  /usr/lib/gcc/arm-none-eabi/8.3.1/../../../arm-none-eabi/lib/thumb/v6-m/nofp/libg_nano.a(lib_a-signal.o)
_gettimeofday_r                                   /tmp/ccxW9Zd7.ltrans0.ltrans.o
                                                  .build/obj_sofle_rev1/platforms/chibios/syscall-fallbacks.o (symbol from plugin)
_global_impure_ptr                                /usr/lib/gcc/arm-none-eabi/8.3.1/../../../arm-none-eabi/lib/thumb/v6-m/nofp/libg_nano.a(lib_a-impure.o)
                                                  /usr/lib/gcc/arm-none-eabi/8.3.1/../../../arm-none-eabi/lib/thumb/v6-m/nofp/libg_nano.a(lib_a-findfp.o)
                                                  /usr/lib/gcc/arm-none-eabi/8.3.1/../../../arm-none-eabi/lib/thumb/v6-m/nofp/libg_nano.a(lib_a-fflush.o)
_impure_ptr                                       /usr/lib/gcc/arm-none-eabi/8.3.1/../../../arm-none-eabi/lib/thumb/v6-m/nofp/libg_nano.a(lib_a-impure.o)
                                                  /usr/lib/gcc/arm-none-eabi/8.3.1/../../../arm-none-eabi/lib/thumb/v6-m/nofp/libg_nano.a(lib_a-reent.o)
                                                  /usr/lib/gcc/arm-none-eabi/8.3.1/../../../arm-none-eabi/lib/thumb/v6-m/nofp/libg_nano.a(lib_a-signal.o)
                                                  /usr/lib/gcc/arm-none-eabi/8.3.1/../../../arm-none-eabi/lib/thumb/v6-m/nofp/libg_nano.a(lib_a-findfp.o)
                                                  /usr/lib/gcc/arm-none-eabi/8.3.1/../../../arm-none-eabi/lib/thumb/v6-m/nofp/libg_nano.a(lib_a-fflush.o)
                                                  /usr/lib/gcc/arm-none-eabi/8.3.1/../../../arm-none-eabi/lib/thumb/v6-m/nofp/libg_nano.a(lib_a-wsetup.o)
                                                  /usr/lib/gcc/arm-none-eabi/8.3.1/../../../arm-none-eabi/lib/thumb/v6-m/nofp/libg_nano.a(lib_a-wbuf.o)
                                                  /usr/lib/gcc/arm-none-eabi/8.3.1/../../../arm-none-eabi/lib/thumb/v6-m/nofp/libg_nano.a(lib_a-nano-vfprintf.o)
                                                  /usr/lib/gcc/arm-none-eabi/8.3.1/../../../arm-none-eabi/lib/thumb/v6-m/nofp/libg_nano.a(lib_a-malloc.o)
                                                  /usr/lib/gcc/arm-none-eabi/8.3.1/../../../arm-none-eabi/lib/thumb/v6-m/nofp/libg_nano.a(lib_a-fprintf.o)
                                                  /usr/lib/gcc/arm-none-eabi/8.3.1/../../../arm-none-eabi/lib/thumb/v6-m/nofp/libg_nano.a(lib_a-assert.o)
                                                  /usr/lib/gcc/arm-none-eabi/8.3.1/../../../arm-none-eabi/lib/thumb/v6-m/nofp/libg_nano.a(lib_a-rand.o)
                                                  /usr/lib/gcc/arm-none-eabi/8.3.1/../../../arm-none-eabi/lib/thumb/v6-m/nofp/libg_nano.a(lib_a-errno.o)
_init_signal                                      /usr/lib/gcc/arm-none-eabi/8.3.1/../../../arm-none-eabi/lib/thumb/v6-m/nofp/libg_nano.a(lib_a-signal.o)
_init_signal_r                                    /usr/lib/gcc/arm-none-eabi/8.3.1/../../../arm-none-eabi/lib/thumb/v6-m/nofp/libg_nano.a(lib_a-signal.o)
_isatty_r                                         /tmp/ccxW9Zd7.ltrans0.ltrans.o
                                                  .build/obj_sofle_rev1/lib/chibios/os/various/syscalls.o (symbol from plugin)
                                                  /usr/lib/gcc/arm-none-eabi/8.3.1/../../../arm-none-eabi/lib/thumb/v6-m/nofp/libg_nano.a(lib_a-makebuf.o)
_kill                                             /tmp/ccxW9Zd7.ltrans0.ltrans.o
                                                  .build/obj_sofle_rev1/lib/chibios/os/various/syscalls.o (symbol from plugin)
                                                  /usr/lib/gcc/arm-none-eabi/8.3.1/../../../arm-none-eabi/lib/thumb/v6-m/nofp/libg_nano.a(lib_a-signalr.o)
_kill_r                                           /usr/lib/gcc/arm-none-eabi/8.3.1/../../../arm-none-eabi/lib/thumb/v6-m/nofp/libg_nano.a(lib_a-signalr.o)
                                                  /usr/lib/gcc/arm-none-eabi/8.3.1/../../../arm-none-eabi/lib/thumb/v6-m/nofp/libg_nano.a(lib_a-signal.o)
_link_r                                           /tmp/ccxW9Zd7.ltrans0.ltrans.o
                                                  .build/obj_sofle_rev1/platforms/chibios/syscall-fallbacks.o (symbol from plugin)
_lseek_r                                          /tmp/ccxW9Zd7.ltrans0.ltrans.o
                                                  .build/obj_sofle_rev1/lib/chibios/os/various/syscalls.o (symbol from plugin)
                                                  /usr/lib/gcc/arm-none-eabi/8.3.1/../../../arm-none-eabi/lib/thumb/v6-m/nofp/libg_nano.a(lib_a-stdio.o)
_malloc_r                                         /usr/lib/gcc/arm-none-eabi/8.3.1/../../../arm-none-eabi/lib/thumb/v6-m/nofp/libg_nano.a(lib_a-nano-mallocr.o)
                                                  /usr/lib/gcc/arm-none-eabi/8.3.1/../../../arm-none-eabi/lib/thumb/v6-m/nofp/libg_nano.a(lib_a-signal.o)
                                                  /usr/lib/gcc/arm-none-eabi/8.3.1/../../../arm-none-eabi/lib/thumb/v6-m/nofp/libg_nano.a(lib_a-nano-reallocr.o)
                                                  /usr/lib/gcc/arm-none-eabi/8.3.1/../../../arm-none-eabi/lib/thumb/v6-m/nofp/libg_nano.a(lib_a-makebuf.o)
                                                  /usr/lib/gcc/arm-none-eabi/8.3.1/../../../arm-none-eabi/lib/thumb/v6-m/nofp/libg_nano.a(lib_a-fvwrite.o)
                                                  /usr/lib/gcc/arm-none-eabi/8.3.1/../../../arm-none-eabi/lib/thumb/v6-m/nofp/libg_nano.a(lib_a-findfp.o)
                                                  /usr/lib/gcc/arm-none-eabi/8.3.1/../../../arm-none-eabi/lib/thumb/v6-m/nofp/libg_nano.a(lib_a-malloc.o)
_malloc_usable_size_r                             /usr/lib/gcc/arm-none-eabi/8.3.1/../../../arm-none-eabi/lib/thumb/v6-m/nofp/libg_nano.a(lib_a-nano-msizer.o)
                                                  /usr/lib/gcc/arm-none-eabi/8.3.1/../../../arm-none-eabi/lib/thumb/v6-m/nofp/libg_nano.a(lib_a-nano-reallocr.o)
_open_r                                           /tmp/ccxW9Zd7.ltrans0.ltrans.o
                                                  .build/obj_sofle_rev1/lib/chibios/os/various/syscalls.o (symbol from plugin)
_printf_common                                    /usr/lib/gcc/arm-none-eabi/8.3.1/../../../arm-none-eabi/lib/thumb/v6-m/nofp/libg_nano.a(lib_a-nano-vfprintf_i.o)
_printf_float                                     /usr/lib/gcc/arm-none-eabi/8.3.1/../../../arm-none-eabi/lib/thumb/v6-m/nofp/libg_nano.a(lib_a-nano-vfprintf.o)
_printf_i                                         /usr/lib/gcc/arm-none-eabi/8.3.1/../../../arm-none-eabi/lib/thumb/v6-m/nofp/libg_nano.a(lib_a-nano-vfprintf_i.o)
                                                  /usr/lib/gcc/arm-none-eabi/8.3.1/../../../arm-none-eabi/lib/thumb/v6-m/nofp/libg_nano.a(lib_a-nano-vfprintf.o)
_raise_r                                          /usr/lib/gcc/arm-none-eabi/8.3.1/../../../arm-none-eabi/lib/thumb/v6-m/nofp/libg_nano.a(lib_a-signal.o)
_read_r                                           /tmp/ccxW9Zd7.ltrans0.ltrans.o
                                                  .build/obj_sofle_rev1/lib/chibios/os/various/syscalls.o (symbol from plugin)
                                                  /usr/lib/gcc/arm-none-eabi/8.3.1/../../../arm-none-eabi/lib/thumb/v6-m/nofp/libg_nano.a(lib_a-stdio.o)
_realloc_r                                        /usr/lib/gcc/arm-none-eabi/8.3.1/../../../arm-none-eabi/lib/thumb/v6-m/nofp/libg_nano.a(lib_a-nano-reallocr.o)
                                                  /usr/lib/gcc/arm-none-eabi/8.3.1/../../../arm-none-eabi/lib/thumb/v6-m/nofp/libg_nano.a(lib_a-fvwrite.o)
_reclaim_reent                                    /usr/lib/gcc/arm-none-eabi/8.3.1/../../../arm-none-eabi/lib/thumb/v6-m/nofp/libg_nano.a(lib_a-reent.o)
_sbrk_r                                           /tmp/ccxW9Zd7.ltrans0.ltrans.o
                                                  .build/obj_sofle_rev1/lib/chibios/os/various/syscalls.o (symbol from plugin)
                                                  /usr/lib/gcc/arm-none-eabi/8.3.1/../../../arm-none-eabi/lib/thumb/v6-m/nofp/libg_nano.a(lib_a-nano-mallocr.o)
_signal_r                                         /usr/lib/gcc/arm-none-eabi/8.3.1/../../../arm-none-eabi/lib/thumb/v6-m/nofp/libg_nano.a(lib_a-signal.o)
_times_r                                          /tmp/ccxW9Zd7.ltrans0.ltrans.o
                                                  .build/obj_sofle_rev1/platforms/chibios/syscall-fallbacks.o (symbol from plugin)
_unhandled_exception                              .build/obj_sofle_rev1_EGF2/./lib/chibios/os/common/startup/ARMCMx/compilers/GCC/vectors.o
_unlink_r                                         /tmp/ccxW9Zd7.ltrans0.ltrans.o
                                                  .build/obj_sofle_rev1/platforms/chibios/syscall-fallbacks.o (symbol from plugin)
_usb_ep0in                                        .build/obj_sofle_rev1/lib/chibios/os/hal/src/hal_usb.o (symbol from plugin)
                                                  .build/obj_sofle_rev1/lib/chibios-contrib/os/hal/ports/RP/LLD/USBDv1/hal_usb_lld.o (symbol from plugin)
_usb_ep0out                                       .build/obj_sofle_rev1/lib/chibios/os/hal/src/hal_usb.o (symbol from plugin)
                                                  .build/obj_sofle_rev1/lib/chibios-contrib/os/hal/ports/RP/LLD/USBDv1/hal_usb_lld.o (symbol from plugin)
_usb_ep0setup                                     .build/obj_sofle_rev1/lib/chibios/os/hal/src/hal_usb.o (symbol from plugin)
                                                  .build/obj_sofle_rev1/lib/chibios-contrib/os/hal/ports/RP/LLD/USBDv1/hal_usb_lld.o (symbol from plugin)
_usb_reset                                        .build/obj_sofle_rev1/lib/chibios/os/hal/src/hal_usb.o (symbol from plugin)
                                                  .build/obj_sofle_rev1/lib/chibios-contrib/os/hal/ports/RP/LLD/USBDv1/hal_usb_lld.o (symbol from plugin)
_usb_suspend                                      .build/obj_sofle_rev1/lib/chibios/os/hal/src/hal_usb.o (symbol from plugin)
                                                  .build/obj_sofle_rev1/lib/chibios-contrib/os/hal/ports/RP/LLD/USBDv1/hal_usb_lld.o (symbol from plugin)
_usb_wakeup                                       .build/obj_sofle_rev1/lib/chibios/os/hal/src/hal_usb.o (symbol from plugin)
                                                  .build/obj_sofle_rev1/lib/chibios-contrib/os/hal/ports/RP/LLD/USBDv1/hal_usb_lld.o (symbol from plugin)
_vectors                                          .build/obj_sofle_rev1_EGF2/./lib/chibios/os/common/startup/ARMCMx/compilers/GCC/vectors.o
                                                  .build/obj_sofle_rev1_EGF2/./lib/chibios/os/common/startup/ARMCMx/compilers/GCC/crt0_v6m.o
_vfiprintf_r                                      /usr/lib/gcc/arm-none-eabi/8.3.1/../../../arm-none-eabi/lib/thumb/v6-m/nofp/libg_nano.a(lib_a-nano-vfprintf.o)
_vfprintf_r                                       /usr/lib/gcc/arm-none-eabi/8.3.1/../../../arm-none-eabi/lib/thumb/v6-m/nofp/libg_nano.a(lib_a-nano-vfprintf.o)
                                                  /usr/lib/gcc/arm-none-eabi/8.3.1/../../../arm-none-eabi/lib/thumb/v6-m/nofp/libg_nano.a(lib_a-fprintf.o)
_watchdog_enable                                  .build/obj_sofle_rev1/./lib/pico-sdk/src/rp2_common/hardware_watchdog/watchdog.o (symbol from plugin)
_write_r                                          /tmp/ccxW9Zd7.ltrans0.ltrans.o
                                                  .build/obj_sofle_rev1/lib/chibios/os/various/syscalls.o (symbol from plugin)
                                                  /usr/lib/gcc/arm-none-eabi/8.3.1/../../../arm-none-eabi/lib/thumb/v6-m/nofp/libg_nano.a(lib_a-stdio.o)
abort                                             /usr/lib/gcc/arm-none-eabi/8.3.1/../../../arm-none-eabi/lib/thumb/v6-m/nofp/libg_nano.a(lib_a-abort.o)
                                                  /usr/lib/gcc/arm-none-eabi/8.3.1/../../../arm-none-eabi/lib/thumb/v6-m/nofp/libg_nano.a(lib_a-assert.o)
action.c.4a717163                                 /tmp/cc4Fj2P6debugobj
                                                  /tmp/ccxW9Zd7.ltrans0.ltrans.o
action_exec                                       .build/obj_sofle_rev1_EGF2/quantum/action.o (symbol from plugin)
                                                  .build/obj_sofle_rev1_EGF2/quantum/keyboard.o (symbol from plugin)
action_for_key                                    .build/obj_sofle_rev1_EGF2/quantum/keymap_common.o (symbol from plugin)
                                                  .build/obj_sofle_rev1_EGF2/quantum/action_layer.o (symbol from plugin)
action_for_keycode                                .build/obj_sofle_rev1_EGF2/quantum/keymap_common.o (symbol from plugin)
action_layer.c.3d78c08c                           /tmp/cc4Fj2P6debugobj
                                                  /tmp/ccxW9Zd7.ltrans0.ltrans.o
action_tapping.c.76bc0452                         /tmp/cc4Fj2P6debugobj
                                                  /tmp/ccxW9Zd7.ltrans0.ltrans.o
action_tapping_process                            .build/obj_sofle_rev1_EGF2/quantum/action_tapping.o (symbol from plugin)
                                                  .build/obj_sofle_rev1_EGF2/quantum/action.o (symbol from plugin)
action_util.c.4bdfedc2                            /tmp/cc4Fj2P6debugobj
                                                  /tmp/ccxW9Zd7.ltrans0.ltrans.o
add_key                                           .build/obj_sofle_rev1_EGF2/quantum/action_util.o (symbol from plugin)
                                                  .build/obj_sofle_rev1_EGF2/quantum/process_keycode/process_grave_esc.o (symbol from plugin)
                                                  .build/obj_sofle_rev1_EGF2/quantum/action.o (symbol from plugin)
add_key_byte                                      .build/obj_sofle_rev1_EGF2/protocol/report.o (symbol from plugin)
add_key_to_report                                 .build/obj_sofle_rev1_EGF2/protocol/report.o (symbol from plugin)
                                                  .build/obj_sofle_rev1_EGF2/quantum/process_keycode/process_grave_esc.o (symbol from plugin)
                                                  .build/obj_sofle_rev1_EGF2/quantum/action_util.o (symbol from plugin)
                                                  .build/obj_sofle_rev1_EGF2/quantum/action.o (symbol from plugin)
add_mods                                          .build/obj_sofle_rev1_EGF2/quantum/action_util.o (symbol from plugin)
                                                  .build/obj_sofle_rev1_EGF2/quantum/process_keycode/process_tap_dance.o (symbol from plugin)
                                                  .build/obj_sofle_rev1_EGF2/quantum/action.o (symbol from plugin)
add_oneshot_mods                                  .build/obj_sofle_rev1_EGF2/quantum/action_util.o (symbol from plugin)
add_weak_mods                                     .build/obj_sofle_rev1_EGF2/quantum/action_util.o (symbol from plugin)
                                                  .build/obj_sofle_rev1_EGF2/quantum/process_keycode/process_tap_dance.o (symbol from plugin)
                                                  .build/obj_sofle_rev1_EGF2/quantum/action.o (symbol from plugin)
animation_status                                  .build/obj_sofle_rev1_EGF2/quantum/rgblight/rgblight.o (symbol from plugin)
ascii_to_altgr_lut                                .build/obj_sofle_rev1_EGF2/quantum/send_string/send_string.o (symbol from plugin)
ascii_to_dead_lut                                 .build/obj_sofle_rev1_EGF2/quantum/send_string/send_string.o (symbol from plugin)
ascii_to_keycode_lut                              .build/obj_sofle_rev1_EGF2/quantum/send_string/send_string.o (symbol from plugin)
ascii_to_shift_lut                                .build/obj_sofle_rev1_EGF2/quantum/send_string/send_string.o (symbol from plugin)
backing_store_erase                               .build/obj_sofle_rev1_EGF2/wear_leveling_rp2040_flash.o (symbol from plugin)
                                                  .build/obj_sofle_rev1_EGF2/wear_leveling.o (symbol from plugin)
backing_store_init                                .build/obj_sofle_rev1_EGF2/wear_leveling_rp2040_flash.o (symbol from plugin)
                                                  .build/obj_sofle_rev1_EGF2/wear_leveling.o (symbol from plugin)
backing_store_lock                                .build/obj_sofle_rev1_EGF2/wear_leveling_rp2040_flash.o (symbol from plugin)
                                                  .build/obj_sofle_rev1_EGF2/wear_leveling.o (symbol from plugin)
backing_store_read                                .build/obj_sofle_rev1_EGF2/wear_leveling_rp2040_flash.o (symbol from plugin)
                                                  .build/obj_sofle_rev1_EGF2/wear_leveling.o (symbol from plugin)
backing_store_read_bulk                           .build/obj_sofle_rev1_EGF2/wear_leveling_rp2040_flash.o (symbol from plugin)
                                                  .build/obj_sofle_rev1_EGF2/wear_leveling.o (symbol from plugin)
backing_store_unlock                              .build/obj_sofle_rev1_EGF2/wear_leveling_rp2040_flash.o (symbol from plugin)
                                                  .build/obj_sofle_rev1_EGF2/wear_leveling.o (symbol from plugin)
backing_store_write                               .build/obj_sofle_rev1_EGF2/wear_leveling_rp2040_flash.o (symbol from plugin)
                                                  .build/obj_sofle_rev1_EGF2/wear_leveling.o (symbol from plugin)
backing_store_write_bulk                          .build/obj_sofle_rev1_EGF2/wear_leveling_rp2040_flash.o (symbol from plugin)
                                                  .build/obj_sofle_rev1_EGF2/wear_leveling.o (symbol from plugin)
biton                                             .build/obj_sofle_rev1_EGF2/quantum/bitwise.o (symbol from plugin)
biton16                                           .build/obj_sofle_rev1_EGF2/quantum/bitwise.o (symbol from plugin)
                                                  .build/obj_sofle_rev1_EGF2/quantum/keymap_introspection.o (symbol from plugin)
biton32                                           .build/obj_sofle_rev1_EGF2/quantum/bitwise.o (symbol from plugin)
bitpop                                            .build/obj_sofle_rev1_EGF2/quantum/bitwise.o (symbol from plugin)
                                                  .build/obj_sofle_rev1_EGF2/quantum/action_util.o (symbol from plugin)
bitpop16                                          .build/obj_sofle_rev1_EGF2/quantum/bitwise.o (symbol from plugin)
bitpop32                                          .build/obj_sofle_rev1_EGF2/quantum/bitwise.o (symbol from plugin)
bitrev                                            .build/obj_sofle_rev1_EGF2/quantum/bitwise.o (symbol from plugin)
bitrev16                                          .build/obj_sofle_rev1_EGF2/quantum/bitwise.o (symbol from plugin)
bitrev32                                          .build/obj_sofle_rev1_EGF2/quantum/bitwise.o (symbol from plugin)
bitwise.c.d05d0eeb                                /tmp/cc4Fj2P6debugobj
                                                  /tmp/ccxW9Zd7.ltrans0.ltrans.o
board.c.3f2b8c3e                                  /tmp/cc4Fj2P6debugobj
                                                  /tmp/ccxW9Zd7.ltrans0.ltrans.o
boardInit                                         .build/obj_sofle_rev1_EGF2/protocol/chibios/chibios.o (symbol from plugin)
                                                  .build/obj_sofle_rev1/lib/chibios/os/hal/src/hal.o (symbol from plugin)
board_init                                        .build/obj_sofle_rev1_EGF2/protocol/chibios/chibios.o (symbol from plugin)
bootloader_jump                                   .build/obj_sofle_rev1_EGF2/platforms/chibios/bootloaders/rp2040.o (symbol from plugin)
                                                  .build/obj_sofle_rev1_EGF2/quantum/quantum.o (symbol from plugin)
bootmagic                                         .build/obj_sofle_rev1_EGF2/quantum/bootmagic/magic.o (symbol from plugin)
bootrom.c.a4a38836                                /tmp/cc4Fj2P6debugobj
                                                  /tmp/ccxW9Zd7.ltrans0.ltrans.o
bsaObjectInit                                     .build/obj_sofle_rev1/lib/chibios/os/hal/lib/streams/bufstreams.o (symbol from plugin)
bufstreams.c.bc2c9564                             /tmp/cc4Fj2P6debugobj
ch0                                               .build/obj_sofle_rev1/lib/chibios/os/rt/src/chsys.o (symbol from plugin)
ch1                                               .build/obj_sofle_rev1/lib/chibios/os/rt/src/chsys.o (symbol from plugin)
chCoreAllocFromBase                               .build/obj_sofle_rev1_EGF2/./lib/chibios/os/oslib/src/chmemcore.o (symbol from plugin)
                                                  .build/obj_sofle_rev1/lib/chibios/os/various/syscalls.o (symbol from plugin)
chCoreAllocFromBaseI                              .build/obj_sofle_rev1_EGF2/./lib/chibios/os/oslib/src/chmemcore.o (symbol from plugin)
chCoreAllocFromTop                                .build/obj_sofle_rev1_EGF2/./lib/chibios/os/oslib/src/chmemcore.o (symbol from plugin)
chCoreAllocFromTopI                               .build/obj_sofle_rev1_EGF2/./lib/chibios/os/oslib/src/chmemcore.o (symbol from plugin)
chCoreGetStatusX                                  .build/obj_sofle_rev1_EGF2/./lib/chibios/os/oslib/src/chmemcore.o (symbol from plugin)
chEvtAddEvents                                    .build/obj_sofle_rev1/lib/chibios/os/rt/src/chevents.o (symbol from plugin)
chEvtBroadcastFlags                               .build/obj_sofle_rev1/lib/chibios/os/rt/src/chevents.o (symbol from plugin)
chEvtBroadcastFlagsI                              .build/obj_sofle_rev1/lib/chibios/os/rt/src/chevents.o (symbol from plugin)
                                                  .build/obj_sofle_rev1_EGF2/protocol/chibios/usb_driver.o (symbol from plugin)
chEvtDispatch                                     .build/obj_sofle_rev1/lib/chibios/os/rt/src/chevents.o (symbol from plugin)
chEvtGetAndClearEvents                            .build/obj_sofle_rev1/lib/chibios/os/rt/src/chevents.o (symbol from plugin)
chEvtGetAndClearEventsI                           .build/obj_sofle_rev1/lib/chibios/os/rt/src/chevents.o (symbol from plugin)
chEvtGetAndClearFlags                             .build/obj_sofle_rev1/lib/chibios/os/rt/src/chevents.o (symbol from plugin)
chEvtGetAndClearFlagsI                            .build/obj_sofle_rev1/lib/chibios/os/rt/src/chevents.o (symbol from plugin)
chEvtRegisterMaskWithFlags                        .build/obj_sofle_rev1/lib/chibios/os/rt/src/chevents.o (symbol from plugin)
chEvtRegisterMaskWithFlagsI                       .build/obj_sofle_rev1/lib/chibios/os/rt/src/chevents.o (symbol from plugin)
chEvtSignal                                       .build/obj_sofle_rev1/lib/chibios/os/rt/src/chevents.o (symbol from plugin)
chEvtSignalI                                      .build/obj_sofle_rev1/lib/chibios/os/rt/src/chevents.o (symbol from plugin)
chEvtUnregister                                   .build/obj_sofle_rev1/lib/chibios/os/rt/src/chevents.o (symbol from plugin)
chEvtWaitAll                                      .build/obj_sofle_rev1/lib/chibios/os/rt/src/chevents.o (symbol from plugin)
chEvtWaitAllTimeout                               .build/obj_sofle_rev1/lib/chibios/os/rt/src/chevents.o (symbol from plugin)
chEvtWaitAny                                      .build/obj_sofle_rev1/lib/chibios/os/rt/src/chevents.o (symbol from plugin)
chEvtWaitAnyTimeout                               .build/obj_sofle_rev1/lib/chibios/os/rt/src/chevents.o (symbol from plugin)
chEvtWaitOne                                      .build/obj_sofle_rev1/lib/chibios/os/rt/src/chevents.o (symbol from plugin)
chEvtWaitOneTimeout                               .build/obj_sofle_rev1/lib/chibios/os/rt/src/chevents.o (symbol from plugin)
chInstanceObjectInit                              .build/obj_sofle_rev1/lib/chibios/os/rt/src/chinstances.o (symbol from plugin)
                                                  .build/obj_sofle_rev1/lib/chibios/os/rt/src/chsys.o (symbol from plugin)
chMtxLock                                         .build/obj_sofle_rev1/lib/chibios/os/rt/src/chmtx.o (symbol from plugin)
                                                  .build/obj_sofle_rev1/platforms/chibios/synchronization_util.o (symbol from plugin)
                                                  .build/obj_sofle_rev1/lib/chibios/os/hal/src/hal_spi.o (symbol from plugin)
                                                  .build/obj_sofle_rev1/lib/chibios/os/hal/src/hal_i2c.o (symbol from plugin)
chMtxLockS                                        .build/obj_sofle_rev1/lib/chibios/os/rt/src/chmtx.o (symbol from plugin)
chMtxObjectInit                                   .build/obj_sofle_rev1/lib/chibios/os/rt/src/chmtx.o (symbol from plugin)
                                                  .build/obj_sofle_rev1/lib/chibios/os/hal/src/hal_spi.o (symbol from plugin)
                                                  .build/obj_sofle_rev1/lib/chibios/os/hal/src/hal_i2c.o (symbol from plugin)
chMtxTryLock                                      .build/obj_sofle_rev1/lib/chibios/os/rt/src/chmtx.o (symbol from plugin)
chMtxTryLockS                                     .build/obj_sofle_rev1/lib/chibios/os/rt/src/chmtx.o (symbol from plugin)
chMtxUnlock                                       .build/obj_sofle_rev1/lib/chibios/os/rt/src/chmtx.o (symbol from plugin)
                                                  .build/obj_sofle_rev1/platforms/chibios/synchronization_util.o (symbol from plugin)
                                                  .build/obj_sofle_rev1/lib/chibios/os/hal/src/hal_spi.o (symbol from plugin)
                                                  .build/obj_sofle_rev1/lib/chibios/os/hal/src/hal_i2c.o (symbol from plugin)
chMtxUnlockAll                                    .build/obj_sofle_rev1/lib/chibios/os/rt/src/chmtx.o (symbol from plugin)
chMtxUnlockAllS                                   .build/obj_sofle_rev1/lib/chibios/os/rt/src/chmtx.o (symbol from plugin)
chMtxUnlockS                                      .build/obj_sofle_rev1/lib/chibios/os/rt/src/chmtx.o (symbol from plugin)
chRFCUCollectFaultsI                              .build/obj_sofle_rev1/lib/chibios/os/rt/src/chrfcu.o (symbol from plugin)
                                                  .build/obj_sofle_rev1/lib/chibios/os/rt/src/chvt.o (symbol from plugin)
chRFCUGetAndClearFaultsI                          .build/obj_sofle_rev1/lib/chibios/os/rt/src/chrfcu.o (symbol from plugin)
chSchDoPreemption                                 /tmp/ccxW9Zd7.ltrans0.ltrans.o
                                                  .build/obj_sofle_rev1/lib/chibios/os/rt/src/chschd.o (symbol from plugin)
                                                  .build/obj_sofle_rev1_EGF2/./lib/chibios/os/common/ports/ARMv6-M-RP2/compilers/GCC/chcoreasm.o
chSchDoYieldS                                     .build/obj_sofle_rev1/lib/chibios/os/rt/src/chschd.o (symbol from plugin)
                                                  .build/obj_sofle_rev1/lib/chibios/os/rt/src/chthreads.o (symbol from plugin)
chSchGoSleepS                                     .build/obj_sofle_rev1/lib/chibios/os/rt/src/chschd.o (symbol from plugin)
                                                  .build/obj_sofle_rev1/lib/chibios/os/rt/src/chevents.o (symbol from plugin)
                                                  .build/obj_sofle_rev1/lib/chibios/os/rt/src/chmtx.o (symbol from plugin)
                                                  .build/obj_sofle_rev1/lib/chibios/os/rt/src/chsem.o (symbol from plugin)
                                                  .build/obj_sofle_rev1/lib/chibios/os/rt/src/chthreads.o (symbol from plugin)
chSchGoSleepTimeoutS                              .build/obj_sofle_rev1/lib/chibios/os/rt/src/chschd.o (symbol from plugin)
                                                  .build/obj_sofle_rev1/lib/chibios/os/rt/src/chevents.o (symbol from plugin)
                                                  .build/obj_sofle_rev1/lib/chibios/os/rt/src/chsem.o (symbol from plugin)
                                                  .build/obj_sofle_rev1/lib/chibios/os/rt/src/chthreads.o (symbol from plugin)
chSchIsPreemptionRequired                         .build/obj_sofle_rev1/lib/chibios/os/rt/src/chschd.o (symbol from plugin)
                                                  .build/obj_sofle_rev1/lib/chibios/os/common/ports/ARMv6-M-RP2/chcore.o (symbol from plugin)
chSchPreemption                                   .build/obj_sofle_rev1/lib/chibios/os/rt/src/chschd.o (symbol from plugin)
chSchReadyI                                       .build/obj_sofle_rev1/lib/chibios/os/rt/src/chschd.o (symbol from plugin)
                                                  .build/obj_sofle_rev1/lib/chibios/os/rt/src/chevents.o (symbol from plugin)
                                                  .build/obj_sofle_rev1/lib/chibios/os/rt/src/chmtx.o (symbol from plugin)
                                                  .build/obj_sofle_rev1/lib/chibios/os/rt/src/chsem.o (symbol from plugin)
                                                  .build/obj_sofle_rev1/lib/chibios/os/rt/src/chthreads.o (symbol from plugin)
chSchRescheduleS                                  .build/obj_sofle_rev1/lib/chibios/os/rt/src/chschd.o (symbol from plugin)
                                                  .build/obj_sofle_rev1/lib/chibios/os/hal/src/hal_usb.o (symbol from plugin)
                                                  .build/obj_sofle_rev1/lib/chibios/os/rt/src/chevents.o (symbol from plugin)
                                                  .build/obj_sofle_rev1/lib/chibios/os/rt/src/chmtx.o (symbol from plugin)
                                                  .build/obj_sofle_rev1/lib/chibios/os/rt/src/chsem.o (symbol from plugin)
                                                  .build/obj_sofle_rev1/lib/chibios/os/rt/src/chthreads.o (symbol from plugin)
                                                  .build/obj_sofle_rev1/lib/chibios/os/rt/src/chsys.o (symbol from plugin)
                                                  .build/obj_sofle_rev1_EGF2/protocol/chibios/usb_driver.o (symbol from plugin)
chSchSelectFirst                                  .build/obj_sofle_rev1/lib/chibios/os/rt/src/chschd.o (symbol from plugin)
chSchWakeupS                                      .build/obj_sofle_rev1/lib/chibios/os/rt/src/chschd.o (symbol from plugin)
                                                  .build/obj_sofle_rev1/lib/chibios/os/rt/src/chsem.o (symbol from plugin)
                                                  .build/obj_sofle_rev1/lib/chibios/os/rt/src/chthreads.o (symbol from plugin)
chSemAddCounterI                                  .build/obj_sofle_rev1/lib/chibios/os/rt/src/chsem.o (symbol from plugin)
chSemObjectInit                                   .build/obj_sofle_rev1/lib/chibios/os/rt/src/chsem.o (symbol from plugin)
chSemResetWithMessage                             .build/obj_sofle_rev1/lib/chibios/os/rt/src/chsem.o (symbol from plugin)
                                                  .build/obj_sofle_rev1_EGF2/ws2812_vendor.o (symbol from plugin)
chSemResetWithMessageI                            .build/obj_sofle_rev1/lib/chibios/os/rt/src/chsem.o (symbol from plugin)
chSemSignal                                       .build/obj_sofle_rev1/lib/chibios/os/rt/src/chsem.o (symbol from plugin)
chSemSignalI                                      .build/obj_sofle_rev1/lib/chibios/os/rt/src/chsem.o (symbol from plugin)
                                                  .build/obj_sofle_rev1_EGF2/ws2812_vendor.o (symbol from plugin)
chSemSignalWait                                   .build/obj_sofle_rev1/lib/chibios/os/rt/src/chsem.o (symbol from plugin)
chSemWait                                         .build/obj_sofle_rev1/lib/chibios/os/rt/src/chsem.o (symbol from plugin)
chSemWaitS                                        .build/obj_sofle_rev1/lib/chibios/os/rt/src/chsem.o (symbol from plugin)
chSemWaitTimeout                                  .build/obj_sofle_rev1/lib/chibios/os/rt/src/chsem.o (symbol from plugin)
                                                  .build/obj_sofle_rev1_EGF2/ws2812_vendor.o (symbol from plugin)
chSemWaitTimeoutS                                 .build/obj_sofle_rev1/lib/chibios/os/rt/src/chsem.o (symbol from plugin)
chSysGetIdleThreadX                               .build/obj_sofle_rev1/lib/chibios/os/rt/src/chsys.o (symbol from plugin)
chSysGetStatusAndLockX                            .build/obj_sofle_rev1/lib/chibios/os/rt/src/chsys.o (symbol from plugin)
chSysHalt                                         .build/obj_sofle_rev1/lib/chibios/os/rt/src/chsys.o (symbol from plugin)
                                                  .build/obj_sofle_rev1/platforms/chibios/vendors/RP/pico_sdk_shims.o (symbol from plugin)
                                                  .build/obj_sofle_rev1/lib/chibios/os/various/syscalls.o (symbol from plugin)
chSysInit                                         .build/obj_sofle_rev1/lib/chibios/os/rt/src/chsys.o (symbol from plugin)
                                                  .build/obj_sofle_rev1_EGF2/platforms/chibios/platform.o (symbol from plugin)
chSysIntegrityCheckI                              .build/obj_sofle_rev1/lib/chibios/os/rt/src/chsys.o (symbol from plugin)
chSysIsCounterWithinX                             .build/obj_sofle_rev1/lib/chibios/os/rt/src/chsys.o (symbol from plugin)
chSysPolledDelayX                                 /tmp/ccxW9Zd7.ltrans0.ltrans.o
                                                  .build/obj_sofle_rev1/lib/chibios/os/rt/src/chsys.o (symbol from plugin)
                                                  .build/obj_sofle_rev1_EGF2/platforms/chibios/bootloaders/rp2040.o (symbol from plugin)
                                                  .build/obj_sofle_rev1_EGF2/serial_vendor.a(serial_vendor.o)
                                                  .build/obj_sofle_rev1_EGF2/quantum/encoder.o (symbol from plugin)
                                                  .build/obj_sofle_rev1_EGF2/ws2812_vendor.o (symbol from plugin)
                                                  .build/obj_sofle_rev1_EGF2/quantum/split_common/transactions.o (symbol from plugin)
                                                  .build/obj_sofle_rev1_EGF2/quantum/matrix_common.o (symbol from plugin)
chSysRestoreStatusX                               .build/obj_sofle_rev1/lib/chibios/os/rt/src/chsys.o (symbol from plugin)
chSysTimerHandlerI                                .build/obj_sofle_rev1/lib/chibios/os/rt/src/chsys.o (symbol from plugin)
                                                  .build/obj_sofle_rev1/lib/chibios/os/hal/ports/RP/LLD/TIMERv1/hal_st_lld.o (symbol from plugin)
chSysWaitSystemState                              .build/obj_sofle_rev1/lib/chibios/os/rt/src/chsys.o (symbol from plugin)
chThdCreate                                       .build/obj_sofle_rev1/lib/chibios/os/rt/src/chthreads.o (symbol from plugin)
chThdCreateI                                      .build/obj_sofle_rev1/lib/chibios/os/rt/src/chthreads.o (symbol from plugin)
                                                  .build/obj_sofle_rev1/lib/chibios/os/rt/src/chinstances.o (symbol from plugin)
chThdCreateStatic                                 /tmp/ccxW9Zd7.ltrans0.ltrans.o
                                                  .build/obj_sofle_rev1/lib/chibios/os/rt/src/chthreads.o (symbol from plugin)
                                                  .build/obj_sofle_rev1_EGF2/serial_protocol.a(serial_protocol.o)
chThdCreateSuspended                              .build/obj_sofle_rev1/lib/chibios/os/rt/src/chthreads.o (symbol from plugin)
chThdCreateSuspendedI                             .build/obj_sofle_rev1/lib/chibios/os/rt/src/chthreads.o (symbol from plugin)
chThdDequeueAllI                                  .build/obj_sofle_rev1/lib/chibios/os/rt/src/chthreads.o (symbol from plugin)
                                                  .build/obj_sofle_rev1/lib/chibios/os/hal/src/hal_queues.o (symbol from plugin)
                                                  .build/obj_sofle_rev1/lib/chibios/os/hal/src/hal_buffers.o (symbol from plugin)
                                                  .build/obj_sofle_rev1_EGF2/protocol/chibios/usb_driver.o (symbol from plugin)
chThdDequeueNextI                                 .build/obj_sofle_rev1/lib/chibios/os/rt/src/chthreads.o (symbol from plugin)
                                                  .build/obj_sofle_rev1/lib/chibios/os/hal/src/hal_queues.o (symbol from plugin)
                                                  .build/obj_sofle_rev1/lib/chibios/os/hal/src/hal_buffers.o (symbol from plugin)
chThdEnqueueTimeoutS                              .build/obj_sofle_rev1/lib/chibios/os/rt/src/chthreads.o (symbol from plugin)
                                                  .build/obj_sofle_rev1/lib/chibios/os/hal/src/hal_queues.o (symbol from plugin)
                                                  .build/obj_sofle_rev1/lib/chibios/os/hal/src/hal_buffers.o (symbol from plugin)
chThdExit                                         /tmp/ccxW9Zd7.ltrans0.ltrans.o
                                                  .build/obj_sofle_rev1/lib/chibios/os/rt/src/chthreads.o (symbol from plugin)
                                                  .build/obj_sofle_rev1_EGF2/./lib/chibios/os/common/ports/ARMv6-M-RP2/compilers/GCC/chcoreasm.o
chThdExitS                                        .build/obj_sofle_rev1/lib/chibios/os/rt/src/chthreads.o (symbol from plugin)
chThdResume                                       .build/obj_sofle_rev1/lib/chibios/os/rt/src/chthreads.o (symbol from plugin)
chThdResumeI                                      /tmp/ccxW9Zd7.ltrans0.ltrans.o
                                                  .build/obj_sofle_rev1/lib/chibios/os/rt/src/chthreads.o (symbol from plugin)
                                                  .build/obj_sofle_rev1/lib/chibios-contrib/os/hal/ports/RP/LLD/USBDv1/hal_usb_lld.o (symbol from plugin)
                                                  .build/obj_sofle_rev1/lib/chibios-contrib/os/hal/ports/RP/LLD/I2Cv1/hal_i2c_lld.o (symbol from plugin)
                                                  .build/obj_sofle_rev1/lib/chibios/os/hal/ports/RP/LLD/SPIv1/hal_spi_lld.o (symbol from plugin)
                                                  .build/obj_sofle_rev1/lib/chibios/os/hal/src/hal_usb.o (symbol from plugin)
                                                  .build/obj_sofle_rev1_EGF2/serial_vendor.a(serial_vendor.o)
chThdResumeS                                      .build/obj_sofle_rev1/lib/chibios/os/rt/src/chthreads.o (symbol from plugin)
chThdSetPriority                                  .build/obj_sofle_rev1/lib/chibios/os/rt/src/chthreads.o (symbol from plugin)
chThdSleep                                        /tmp/ccxW9Zd7.ltrans0.ltrans.o
                                                  .build/obj_sofle_rev1/lib/chibios/os/rt/src/chthreads.o (symbol from plugin)
                                                  .build/obj_sofle_rev1/lib/chibios/os/hal/src/hal_flash.o (symbol from plugin)
                                                  .build/obj_sofle_rev1_EGF2/protocol/chibios/chibios.o (symbol from plugin)
                                                  .build/obj_sofle_rev1_EGF2/protocol/chibios/usb_main.o (symbol from plugin)
                                                  .build/obj_sofle_rev1_EGF2/platforms/chibios/suspend.o (symbol from plugin)
                                                  .build/obj_sofle_rev1_EGF2/i2c_master.a(i2c_master.o)
                                                  .build/obj_sofle_rev1_EGF2/quantum/process_keycode/process_tap_dance.o (symbol from plugin)
                                                  .build/obj_sofle_rev1_EGF2/quantum/send_string/send_string.o (symbol from plugin)
                                                  .build/obj_sofle_rev1_EGF2/quantum/split_common/split_util.o (symbol from plugin)
                                                  .build/obj_sofle_rev1_EGF2/quantum/action.o (symbol from plugin)
                                                  .build/obj_sofle_rev1_EGF2/quantum/quantum.o (symbol from plugin)
chThdSleepUntil                                   .build/obj_sofle_rev1/lib/chibios/os/rt/src/chthreads.o (symbol from plugin)
chThdSleepUntilWindowed                           .build/obj_sofle_rev1/lib/chibios/os/rt/src/chthreads.o (symbol from plugin)
chThdStart                                        .build/obj_sofle_rev1/lib/chibios/os/rt/src/chthreads.o (symbol from plugin)
chThdSuspendS                                     .build/obj_sofle_rev1/lib/chibios/os/rt/src/chthreads.o (symbol from plugin)
chThdSuspendTimeoutS                              /tmp/ccxW9Zd7.ltrans0.ltrans.o
                                                  .build/obj_sofle_rev1/lib/chibios/os/rt/src/chthreads.o (symbol from plugin)
                                                  .build/obj_sofle_rev1/lib/chibios-contrib/os/hal/ports/RP/LLD/I2Cv1/hal_i2c_lld.o (symbol from plugin)
                                                  .build/obj_sofle_rev1/lib/chibios/os/hal/src/hal_usb.o (symbol from plugin)
                                                  .build/obj_sofle_rev1/lib/chibios/os/hal/src/hal_spi.o (symbol from plugin)
                                                  .build/obj_sofle_rev1_EGF2/protocol/chibios/usb_main.o (symbol from plugin)
                                                  .build/obj_sofle_rev1_EGF2/serial_vendor.a(serial_vendor.o)
chThdTerminate                                    .build/obj_sofle_rev1/lib/chibios/os/rt/src/chthreads.o (symbol from plugin)
chThdYield                                        .build/obj_sofle_rev1/lib/chibios/os/rt/src/chthreads.o (symbol from plugin)
chVTDoResetI                                      .build/obj_sofle_rev1/lib/chibios/os/rt/src/chvt.o (symbol from plugin)
                                                  .build/obj_sofle_rev1/lib/chibios/os/rt/src/chschd.o (symbol from plugin)
                                                  .build/obj_sofle_rev1_EGF2/protocol/chibios/usb_main.o (symbol from plugin)
chVTDoSetContinuousI                              .build/obj_sofle_rev1/lib/chibios/os/rt/src/chvt.o (symbol from plugin)
chVTDoSetI                                        .build/obj_sofle_rev1/lib/chibios/os/rt/src/chvt.o (symbol from plugin)
                                                  .build/obj_sofle_rev1/lib/chibios/os/rt/src/chschd.o (symbol from plugin)
                                                  .build/obj_sofle_rev1_EGF2/protocol/chibios/usb_main.o (symbol from plugin)
chVTDoTickI                                       .build/obj_sofle_rev1/lib/chibios/os/rt/src/chvt.o (symbol from plugin)
                                                  .build/obj_sofle_rev1/lib/chibios/os/rt/src/chsys.o (symbol from plugin)
chVTGetRemainingIntervalI                         .build/obj_sofle_rev1/lib/chibios/os/rt/src/chvt.o (symbol from plugin)
chVTGetTimeStampI                                 .build/obj_sofle_rev1/lib/chibios/os/rt/src/chvt.o (symbol from plugin)
chVTResetTimeStampI                               .build/obj_sofle_rev1/lib/chibios/os/rt/src/chvt.o (symbol from plugin)
ch_core0_cfg                                      .build/obj_sofle_rev1/lib/chibios/os/rt/src/chsys.o (symbol from plugin)
ch_core1_cfg                                      .build/obj_sofle_rev1/lib/chibios/os/rt/src/chsys.o (symbol from plugin)
ch_memcore                                        .build/obj_sofle_rev1_EGF2/./lib/chibios/os/oslib/src/chmemcore.o (symbol from plugin)
ch_system                                         .build/obj_sofle_rev1/lib/chibios/os/rt/src/chsys.o (symbol from plugin)
                                                  .build/obj_sofle_rev1/lib/chibios/os/common/ports/ARMv6-M-RP2/chcore.o (symbol from plugin)
                                                  .build/obj_sofle_rev1/lib/chibios/os/rt/src/chevents.o (symbol from plugin)
                                                  .build/obj_sofle_rev1/lib/chibios/os/rt/src/chmtx.o (symbol from plugin)
                                                  .build/obj_sofle_rev1/lib/chibios/os/rt/src/chsem.o (symbol from plugin)
                                                  .build/obj_sofle_rev1/lib/chibios/os/rt/src/chthreads.o (symbol from plugin)
                                                  .build/obj_sofle_rev1/lib/chibios/os/rt/src/chinstances.o (symbol from plugin)
                                                  .build/obj_sofle_rev1/lib/chibios/os/rt/src/chschd.o (symbol from plugin)
                                                  .build/obj_sofle_rev1/lib/chibios/os/rt/src/chvt.o (symbol from plugin)
                                                  .build/obj_sofle_rev1/lib/chibios/os/rt/src/chrfcu.o (symbol from plugin)
chcond.c.8719f611                                 /tmp/cc4Fj2P6debugobj
chcore.c.084c4227                                 /tmp/cc4Fj2P6debugobj
                                                  /tmp/ccxW9Zd7.ltrans0.ltrans.o
chdebug.c.49271e47                                /tmp/cc4Fj2P6debugobj
chdelegates.c.7c2d10d4                            /tmp/cc4Fj2P6debugobj
chdynamic.c.40fe98fc                              /tmp/cc4Fj2P6debugobj
chevents.c.a37d7618                               /tmp/cc4Fj2P6debugobj
chfactory.c.31d0966d                              /tmp/cc4Fj2P6debugobj
chibios.c.ad8ed148                                /tmp/cc4Fj2P6debugobj
                                                  /tmp/ccxW9Zd7.ltrans0.ltrans.o
chibios_driver                                    .build/obj_sofle_rev1_EGF2/protocol/chibios/chibios.o (symbol from plugin)
chinstances.c.ab171431                            /tmp/cc4Fj2P6debugobj
                                                  /tmp/ccxW9Zd7.ltrans0.ltrans.o
chmboxes.c.4e320a17                               /tmp/cc4Fj2P6debugobj
chmemcore.c.ee8ef0ef                              /tmp/cc4Fj2P6debugobj
                                                  /tmp/ccxW9Zd7.ltrans0.ltrans.o
chmemheaps.c.3914da1d                             /tmp/cc4Fj2P6debugobj
chmempools.c.5f7da96a                             /tmp/cc4Fj2P6debugobj
chmsg.c.99486e9b                                  /tmp/cc4Fj2P6debugobj
chmtx.c.fa1cb598                                  /tmp/cc4Fj2P6debugobj
                                                  /tmp/ccxW9Zd7.ltrans0.ltrans.o
chobjcaches.c.5268f7f1                            /tmp/cc4Fj2P6debugobj
chpipes.c.25067677                                /tmp/cc4Fj2P6debugobj
chprintf                                          .build/obj_sofle_rev1/lib/chibios/os/hal/lib/streams/chprintf.o (symbol from plugin)
chprintf.c.585cda5a                               /tmp/cc4Fj2P6debugobj
chregistry.c.c2184edb                             /tmp/cc4Fj2P6debugobj
chrfcu.c.2684692b                                 /tmp/cc4Fj2P6debugobj
                                                  /tmp/ccxW9Zd7.ltrans0.ltrans.o
chscanf                                           .build/obj_sofle_rev1/lib/chibios/os/hal/lib/streams/chscanf.o (symbol from plugin)
chscanf.c.14d29b74                                /tmp/cc4Fj2P6debugobj
chschd.c.bf80d069                                 /tmp/cc4Fj2P6debugobj
                                                  /tmp/ccxW9Zd7.ltrans0.ltrans.o
chsem.c.89ea06a9                                  /tmp/cc4Fj2P6debugobj
                                                  /tmp/ccxW9Zd7.ltrans0.ltrans.o
chsnprintf                                        .build/obj_sofle_rev1/lib/chibios/os/hal/lib/streams/chprintf.o (symbol from plugin)
chsnscanf                                         .build/obj_sofle_rev1/lib/chibios/os/hal/lib/streams/chscanf.o (symbol from plugin)
chstats.c.7352c1b0                                /tmp/cc4Fj2P6debugobj
chsys.c.a0f7f4ce                                  /tmp/cc4Fj2P6debugobj
                                                  /tmp/ccxW9Zd7.ltrans0.ltrans.o
chthreads.c.a0be63db                              /tmp/cc4Fj2P6debugobj
                                                  /tmp/ccxW9Zd7.ltrans0.ltrans.o
chtm.c.50d30e50                                   /tmp/cc4Fj2P6debugobj
chtrace.c.fc494fa3                                /tmp/cc4Fj2P6debugobj
chvprintf                                         .build/obj_sofle_rev1/lib/chibios/os/hal/lib/streams/chprintf.o (symbol from plugin)
chvscanf                                          .build/obj_sofle_rev1/lib/chibios/os/hal/lib/streams/chscanf.o (symbol from plugin)
chvsnprintf                                       .build/obj_sofle_rev1/lib/chibios/os/hal/lib/streams/chprintf.o (symbol from plugin)
chvsnscanf                                        .build/obj_sofle_rev1/lib/chibios/os/hal/lib/streams/chscanf.o (symbol from plugin)
chvt.c.5b75bbb8                                   /tmp/cc4Fj2P6debugobj
                                                  /tmp/ccxW9Zd7.ltrans0.ltrans.o
claim.c.8a9fc494                                  /tmp/cc4Fj2P6debugobj
                                                  /tmp/ccxW9Zd7.ltrans0.ltrans.o
cleanup_glue                                      /usr/lib/gcc/arm-none-eabi/8.3.1/../../../arm-none-eabi/lib/thumb/v6-m/nofp/libg_nano.a(lib_a-reent.o)
clear_keyboard                                    .build/obj_sofle_rev1_EGF2/quantum/action.o (symbol from plugin)
                                                  .build/obj_sofle_rev1_EGF2/quantum/process_keycode/process_magic.o (symbol from plugin)
                                                  .build/obj_sofle_rev1_EGF2/quantum/action_tapping.o (symbol from plugin)
                                                  .build/obj_sofle_rev1_EGF2/quantum/quantum.o (symbol from plugin)
clear_keyboard_but_mods                           .build/obj_sofle_rev1_EGF2/quantum/action.o (symbol from plugin)
clear_keyboard_but_mods_and_keys                  .build/obj_sofle_rev1_EGF2/quantum/action.o (symbol from plugin)
clear_keys                                        .build/obj_sofle_rev1_EGF2/quantum/action_util.o (symbol from plugin)
                                                  .build/obj_sofle_rev1_EGF2/platforms/chibios/suspend.o (symbol from plugin)
                                                  .build/obj_sofle_rev1_EGF2/quantum/action.o (symbol from plugin)
clear_keys_from_report                            .build/obj_sofle_rev1_EGF2/protocol/report.o (symbol from plugin)
                                                  .build/obj_sofle_rev1_EGF2/platforms/chibios/suspend.o (symbol from plugin)
                                                  .build/obj_sofle_rev1_EGF2/quantum/action_util.o (symbol from plugin)
                                                  .build/obj_sofle_rev1_EGF2/quantum/action.o (symbol from plugin)
clear_mods                                        .build/obj_sofle_rev1_EGF2/quantum/action_util.o (symbol from plugin)
                                                  .build/obj_sofle_rev1_EGF2/platforms/chibios/suspend.o (symbol from plugin)
                                                  .build/obj_sofle_rev1_EGF2/quantum/action.o (symbol from plugin)
clear_oneshot_layer_state                         .build/obj_sofle_rev1_EGF2/quantum/action_util.o (symbol from plugin)
                                                  .build/obj_sofle_rev1_EGF2/quantum/action.o (symbol from plugin)
clear_oneshot_locked_mods                         .build/obj_sofle_rev1_EGF2/quantum/action_util.o (symbol from plugin)
clear_oneshot_mods                                .build/obj_sofle_rev1_EGF2/quantum/action_util.o (symbol from plugin)
                                                  .build/obj_sofle_rev1_EGF2/quantum/action.o (symbol from plugin)
clear_oneshot_swaphands                           .build/obj_sofle_rev1_EGF2/quantum/action_util.o (symbol from plugin)
clear_weak_mods                                   .build/obj_sofle_rev1_EGF2/quantum/action_util.o (symbol from plugin)
                                                  .build/obj_sofle_rev1_EGF2/platforms/chibios/suspend.o (symbol from plugin)
                                                  .build/obj_sofle_rev1_EGF2/quantum/process_keycode/process_tap_dance.o (symbol from plugin)
                                                  .build/obj_sofle_rev1_EGF2/quantum/action.o (symbol from plugin)
clock_configure                                   .build/obj_sofle_rev1/./lib/pico-sdk/src/rp2_common/hardware_clocks/clocks.o (symbol from plugin)
clock_configure_gpin                              .build/obj_sofle_rev1/./lib/pico-sdk/src/rp2_common/hardware_clocks/clocks.o (symbol from plugin)
clock_get_hz                                      /tmp/ccxW9Zd7.ltrans0.ltrans.o
                                                  .build/obj_sofle_rev1/./lib/pico-sdk/src/rp2_common/hardware_clocks/clocks.o (symbol from plugin)
                                                  .build/obj_sofle_rev1/lib/chibios-contrib/os/hal/ports/RP/LLD/I2Cv1/hal_i2c_lld.o (symbol from plugin)
                                                  .build/obj_sofle_rev1/lib/chibios/os/hal/ports/RP/RP2040/hal_lld.o (symbol from plugin)
                                                  .build/obj_sofle_rev1_EGF2/serial_vendor.a(serial_vendor.o)
                                                  .build/obj_sofle_rev1_EGF2/ws2812_vendor.o (symbol from plugin)
                                                  .build/obj_sofle_rev1_EGF2/quantum/matrix_common.o (symbol from plugin)
clock_gpio_init                                   .build/obj_sofle_rev1/./lib/pico-sdk/src/rp2_common/hardware_clocks/clocks.o (symbol from plugin)
clock_set_reported_hz                             .build/obj_sofle_rev1/./lib/pico-sdk/src/rp2_common/hardware_clocks/clocks.o (symbol from plugin)
clock_stop                                        .build/obj_sofle_rev1/./lib/pico-sdk/src/rp2_common/hardware_clocks/clocks.o (symbol from plugin)
clocks.c.9d6b24e3                                 /tmp/cc4Fj2P6debugobj
                                                  /tmp/ccxW9Zd7.ltrans0.ltrans.o
clocks_enable_resus                               .build/obj_sofle_rev1/./lib/pico-sdk/src/rp2_common/hardware_clocks/clocks.o (symbol from plugin)
clocks_init                                       .build/obj_sofle_rev1/./lib/pico-sdk/src/rp2_common/hardware_clocks/clocks.o (symbol from plugin)
                                                  .build/obj_sofle_rev1/lib/chibios/os/hal/ports/RP/RP2040/hal_lld.o (symbol from plugin)
                                                  .build/obj_sofle_rev1_EGF2/platforms/chibios/bootloaders/rp2040.o (symbol from plugin)
color.c.36938ce2                                  /tmp/cc4Fj2P6debugobj
                                                  /tmp/ccxW9Zd7.ltrans0.ltrans.o
crc.c.a2d56930                                    /tmp/cc4Fj2P6debugobj
                                                  /tmp/ccxW9Zd7.ltrans0.ltrans.o
crc8                                              .build/obj_sofle_rev1_EGF2/crc.o (symbol from plugin)
                                                  .build/obj_sofle_rev1_EGF2/quantum/split_common/transactions.o (symbol from plugin)
crc_init                                          .build/obj_sofle_rev1_EGF2/crc.o (symbol from plugin)
                                                  .build/obj_sofle_rev1_EGF2/quantum/keyboard.o (symbol from plugin)
crot                                              .build/obj_sofle_rev1_EGF2/ssd1306_sh1106.o (symbol from plugin)
crt1.c.bd4ab947                                   /tmp/cc4Fj2P6debugobj
                                                  /tmp/ccxW9Zd7.ltrans0.ltrans.o
debounce                                          .build/obj_sofle_rev1_EGF2/quantum/debounce/sym_defer_g.o (symbol from plugin)
                                                  .build/obj_sofle_rev1_EGF2/quantum/matrix.o (symbol from plugin)
                                                  .build/obj_sofle_rev1_EGF2/quantum/matrix_common.o (symbol from plugin)
debounce_free                                     .build/obj_sofle_rev1_EGF2/quantum/debounce/sym_defer_g.o (symbol from plugin)
debounce_init                                     .build/obj_sofle_rev1_EGF2/quantum/debounce/sym_defer_g.o (symbol from plugin)
                                                  .build/obj_sofle_rev1_EGF2/quantum/matrix.o (symbol from plugin)
                                                  .build/obj_sofle_rev1_EGF2/quantum/matrix_common.o (symbol from plugin)
debug.c.d3ea5434                                  /tmp/cc4Fj2P6debugobj
                                                  /tmp/ccxW9Zd7.ltrans0.ltrans.o
debug_action                                      .build/obj_sofle_rev1_EGF2/quantum/action.o (symbol from plugin)
debug_config                                      .build/obj_sofle_rev1_EGF2/quantum/logging/debug.o (symbol from plugin)
                                                  .build/obj_sofle_rev1_EGF2/quantum/bootmagic/magic.o (symbol from plugin)
                                                  .build/obj_sofle_rev1_EGF2/quantum/keyboard.o (symbol from plugin)
debug_event                                       .build/obj_sofle_rev1_EGF2/quantum/action.o (symbol from plugin)
                                                  .build/obj_sofle_rev1_EGF2/quantum/action_tapping.o (symbol from plugin)
debug_record                                      .build/obj_sofle_rev1_EGF2/quantum/action.o (symbol from plugin)
                                                  .build/obj_sofle_rev1_EGF2/quantum/action_tapping.o (symbol from plugin)
decay_wpm                                         .build/obj_sofle_rev1_EGF2/quantum/wpm.o (symbol from plugin)
                                                  .build/obj_sofle_rev1_EGF2/quantum/keyboard.o (symbol from plugin)
default_keyboard.c.77d42d8b                       /tmp/cc4Fj2P6debugobj
default_layer_and                                 .build/obj_sofle_rev1_EGF2/quantum/action_layer.o (symbol from plugin)
                                                  .build/obj_sofle_rev1_EGF2/quantum/action.o (symbol from plugin)
default_layer_debug                               .build/obj_sofle_rev1_EGF2/quantum/action_layer.o (symbol from plugin)
                                                  .build/obj_sofle_rev1_EGF2/quantum/action.o (symbol from plugin)
default_layer_or                                  .build/obj_sofle_rev1_EGF2/quantum/action_layer.o (symbol from plugin)
                                                  .build/obj_sofle_rev1_EGF2/quantum/action.o (symbol from plugin)
default_layer_set                                 .build/obj_sofle_rev1_EGF2/quantum/action_layer.o (symbol from plugin)
                                                  .build/obj_sofle_rev1_EGF2/quantum/bootmagic/magic.o (symbol from plugin)
                                                  .build/obj_sofle_rev1_EGF2/quantum/action.o (symbol from plugin)
                                                  .build/obj_sofle_rev1_EGF2/quantum/quantum.o (symbol from plugin)
default_layer_state                               .build/obj_sofle_rev1_EGF2/quantum/action_layer.o (symbol from plugin)
                                                  .build/obj_sofle_rev1_EGF2/quantum/eeconfig.o (symbol from plugin)
                                                  .build/obj_sofle_rev1_EGF2/quantum/keymap_introspection.o (symbol from plugin)
default_layer_state_set_kb                        .build/obj_sofle_rev1_EGF2/quantum/action_layer.o (symbol from plugin)
default_layer_state_set_user                      .build/obj_sofle_rev1_EGF2/quantum/action_layer.o (symbol from plugin)
default_layer_xor                                 .build/obj_sofle_rev1_EGF2/quantum/action_layer.o (symbol from plugin)
                                                  .build/obj_sofle_rev1_EGF2/quantum/action.o (symbol from plugin)
del_key                                           .build/obj_sofle_rev1_EGF2/quantum/action_util.o (symbol from plugin)
                                                  .build/obj_sofle_rev1_EGF2/quantum/process_keycode/process_grave_esc.o (symbol from plugin)
                                                  .build/obj_sofle_rev1_EGF2/quantum/action.o (symbol from plugin)
del_key_byte                                      .build/obj_sofle_rev1_EGF2/protocol/report.o (symbol from plugin)
del_key_from_report                               .build/obj_sofle_rev1_EGF2/protocol/report.o (symbol from plugin)
                                                  .build/obj_sofle_rev1_EGF2/quantum/process_keycode/process_grave_esc.o (symbol from plugin)
                                                  .build/obj_sofle_rev1_EGF2/quantum/action_util.o (symbol from plugin)
                                                  .build/obj_sofle_rev1_EGF2/quantum/action.o (symbol from plugin)
del_mods                                          .build/obj_sofle_rev1_EGF2/quantum/action_util.o (symbol from plugin)
                                                  .build/obj_sofle_rev1_EGF2/quantum/process_keycode/process_tap_dance.o (symbol from plugin)
                                                  .build/obj_sofle_rev1_EGF2/quantum/action.o (symbol from plugin)
del_oneshot_mods                                  .build/obj_sofle_rev1_EGF2/quantum/action_util.o (symbol from plugin)
del_weak_mods                                     .build/obj_sofle_rev1_EGF2/quantum/action_util.o (symbol from plugin)
                                                  .build/obj_sofle_rev1_EGF2/quantum/process_keycode/process_tap_dance.o (symbol from plugin)
                                                  .build/obj_sofle_rev1_EGF2/quantum/action.o (symbol from plugin)
disable_action_cache                              .build/obj_sofle_rev1_EGF2/quantum/action.o (symbol from plugin)
                                                  .build/obj_sofle_rev1_EGF2/quantum/action_layer.o (symbol from plugin)
                                                  .build/obj_sofle_rev1_EGF2/quantum/quantum.o (symbol from plugin)
div_s32s32                                        .build/obj_sofle_rev1/./lib/pico-sdk/src/rp2_common/pico_divider/divider.o
div_s64s64                                        .build/obj_sofle_rev1/./lib/pico-sdk/src/rp2_common/pico_divider/divider.o
div_u32u32                                        .build/obj_sofle_rev1/./lib/pico-sdk/src/rp2_common/pico_divider/divider.o
div_u64u64                                        .build/obj_sofle_rev1/./lib/pico-sdk/src/rp2_common/pico_divider/divider.o
divmod_s32s32                                     .build/obj_sofle_rev1/./lib/pico-sdk/src/rp2_common/pico_divider/divider.o
divmod_s32s32_unsafe                              .build/obj_sofle_rev1/./lib/pico-sdk/src/rp2_common/pico_divider/divider.o
divmod_s64s64                                     .build/obj_sofle_rev1/./lib/pico-sdk/src/rp2_common/pico_divider/divider.o
divmod_s64s64_rem                                 .build/obj_sofle_rev1/./lib/pico-sdk/src/rp2_common/pico_divider/divider.o
divmod_s64s64_unsafe                              .build/obj_sofle_rev1/./lib/pico-sdk/src/rp2_common/pico_divider/divider.o
divmod_u32u32                                     .build/obj_sofle_rev1/./lib/pico-sdk/src/rp2_common/pico_divider/divider.o
divmod_u32u32_unsafe                              .build/obj_sofle_rev1/./lib/pico-sdk/src/rp2_common/pico_divider/divider.o
divmod_u64u64                                     .build/obj_sofle_rev1/./lib/pico-sdk/src/rp2_common/pico_divider/divider.o
divmod_u64u64_rem                                 .build/obj_sofle_rev1/./lib/pico-sdk/src/rp2_common/pico_divider/divider.o
divmod_u64u64_unsafe                              .build/obj_sofle_rev1/./lib/pico-sdk/src/rp2_common/pico_divider/divider.o
dmaChannelAlloc                                   .build/obj_sofle_rev1/lib/chibios/os/hal/ports/RP/LLD/DMAv1/rp_dma.o (symbol from plugin)
                                                  .build/obj_sofle_rev1_EGF2/ws2812_vendor.o (symbol from plugin)
dmaChannelAllocI                                  .build/obj_sofle_rev1/lib/chibios/os/hal/ports/RP/LLD/DMAv1/rp_dma.o (symbol from plugin)
                                                  .build/obj_sofle_rev1/lib/chibios/os/hal/ports/RP/LLD/SPIv1/hal_spi_lld.o (symbol from plugin)
dmaChannelFree                                    .build/obj_sofle_rev1/lib/chibios/os/hal/ports/RP/LLD/DMAv1/rp_dma.o (symbol from plugin)
dmaChannelFreeI                                   .build/obj_sofle_rev1/lib/chibios/os/hal/ports/RP/LLD/DMAv1/rp_dma.o (symbol from plugin)
                                                  .build/obj_sofle_rev1/lib/chibios/os/hal/ports/RP/LLD/SPIv1/hal_spi_lld.o (symbol from plugin)
dmaInit                                           .build/obj_sofle_rev1/lib/chibios/os/hal/ports/RP/LLD/DMAv1/rp_dma.o (symbol from plugin)
                                                  .build/obj_sofle_rev1/lib/chibios/os/hal/ports/RP/RP2040/hal_lld.o (symbol from plugin)
do_code16                                         .build/obj_sofle_rev1_EGF2/quantum/quantum.o (symbol from plugin)
early_hardware_init_post                          .build/obj_sofle_rev1_EGF2/protocol/chibios/chibios.o (symbol from plugin)
early_hardware_init_pre                           .build/obj_sofle_rev1_EGF2/protocol/chibios/chibios.o (symbol from plugin)
eeconfig.c.953311b9                               /tmp/cc4Fj2P6debugobj
                                                  /tmp/ccxW9Zd7.ltrans0.ltrans.o
eeconfig_debug_rgblight                           .build/obj_sofle_rev1_EGF2/quantum/rgblight/rgblight.o (symbol from plugin)
eeconfig_disable                                  .build/obj_sofle_rev1_EGF2/quantum/eeconfig.o (symbol from plugin)
                                                  .build/obj_sofle_rev1_EGF2/quantum/quantum.o (symbol from plugin)
eeconfig_enable                                   .build/obj_sofle_rev1_EGF2/quantum/eeconfig.o (symbol from plugin)
eeconfig_init                                     .build/obj_sofle_rev1_EGF2/quantum/eeconfig.o (symbol from plugin)
                                                  .build/obj_sofle_rev1_EGF2/quantum/rgblight/rgblight.o (symbol from plugin)
                                                  .build/obj_sofle_rev1_EGF2/quantum/bootmagic/magic.o (symbol from plugin)
eeconfig_init_kb                                  .build/obj_sofle_rev1_EGF2/quantum/eeconfig.o (symbol from plugin)
eeconfig_init_quantum                             .build/obj_sofle_rev1_EGF2/quantum/eeconfig.o (symbol from plugin)
eeconfig_init_user                                .build/obj_sofle_rev1_EGF2/quantum/eeconfig.o (symbol from plugin)
eeconfig_is_disabled                              .build/obj_sofle_rev1_EGF2/quantum/eeconfig.o (symbol from plugin)
eeconfig_is_enabled                               .build/obj_sofle_rev1_EGF2/quantum/eeconfig.o (symbol from plugin)
                                                  .build/obj_sofle_rev1_EGF2/quantum/rgblight/rgblight.o (symbol from plugin)
                                                  .build/obj_sofle_rev1_EGF2/quantum/bootmagic/magic.o (symbol from plugin)
eeconfig_read_audio                               .build/obj_sofle_rev1_EGF2/quantum/eeconfig.o (symbol from plugin)
eeconfig_read_debug                               .build/obj_sofle_rev1_EGF2/quantum/eeconfig.o (symbol from plugin)
                                                  .build/obj_sofle_rev1_EGF2/quantum/bootmagic/magic.o (symbol from plugin)
eeconfig_read_default_layer                       .build/obj_sofle_rev1_EGF2/quantum/eeconfig.o (symbol from plugin)
                                                  .build/obj_sofle_rev1_EGF2/quantum/bootmagic/magic.o (symbol from plugin)
eeconfig_read_handedness                          .build/obj_sofle_rev1_EGF2/quantum/eeconfig.o (symbol from plugin)
eeconfig_read_haptic                              .build/obj_sofle_rev1_EGF2/quantum/eeconfig.o (symbol from plugin)
eeconfig_read_kb                                  .build/obj_sofle_rev1_EGF2/quantum/eeconfig.o (symbol from plugin)
eeconfig_read_keymap                              .build/obj_sofle_rev1_EGF2/quantum/eeconfig.o (symbol from plugin)
                                                  .build/obj_sofle_rev1_EGF2/quantum/process_keycode/process_magic.o (symbol from plugin)
                                                  .build/obj_sofle_rev1_EGF2/quantum/bootmagic/magic.o (symbol from plugin)
eeconfig_read_rgblight                            .build/obj_sofle_rev1_EGF2/quantum/rgblight/rgblight.o (symbol from plugin)
eeconfig_read_user                                .build/obj_sofle_rev1_EGF2/quantum/eeconfig.o (symbol from plugin)
eeconfig_update_audio                             .build/obj_sofle_rev1_EGF2/quantum/eeconfig.o (symbol from plugin)
eeconfig_update_debug                             .build/obj_sofle_rev1_EGF2/quantum/eeconfig.o (symbol from plugin)
eeconfig_update_default_layer                     .build/obj_sofle_rev1_EGF2/quantum/eeconfig.o (symbol from plugin)
                                                  .build/obj_sofle_rev1_EGF2/quantum/quantum.o (symbol from plugin)
eeconfig_update_handedness                        .build/obj_sofle_rev1_EGF2/quantum/eeconfig.o (symbol from plugin)
                                                  .build/obj_sofle_rev1_EGF2/quantum/process_keycode/process_magic.o (symbol from plugin)
eeconfig_update_haptic                            .build/obj_sofle_rev1_EGF2/quantum/eeconfig.o (symbol from plugin)
eeconfig_update_kb                                .build/obj_sofle_rev1_EGF2/quantum/eeconfig.o (symbol from plugin)
eeconfig_update_keymap                            .build/obj_sofle_rev1_EGF2/quantum/eeconfig.o (symbol from plugin)
                                                  .build/obj_sofle_rev1_EGF2/quantum/process_keycode/process_magic.o (symbol from plugin)
                                                  .build/obj_sofle_rev1_EGF2/quantum/action_util.o (symbol from plugin)
eeconfig_update_rgblight                          .build/obj_sofle_rev1_EGF2/quantum/rgblight/rgblight.o (symbol from plugin)
eeconfig_update_rgblight_current                  .build/obj_sofle_rev1_EGF2/quantum/rgblight/rgblight.o (symbol from plugin)
eeconfig_update_rgblight_default                  .build/obj_sofle_rev1_EGF2/quantum/rgblight/rgblight.o (symbol from plugin)
eeconfig_update_user                              .build/obj_sofle_rev1_EGF2/quantum/eeconfig.o (symbol from plugin)
eeprom_driver.c.91c036b7                          /tmp/cc4Fj2P6debugobj
                                                  /tmp/ccxW9Zd7.ltrans0.ltrans.o
eeprom_driver_erase                               .build/obj_sofle_rev1_EGF2/eeprom_wear_leveling.o (symbol from plugin)
                                                  .build/obj_sofle_rev1_EGF2/quantum/eeconfig.o (symbol from plugin)
eeprom_driver_init                                .build/obj_sofle_rev1_EGF2/eeprom_wear_leveling.o (symbol from plugin)
                                                  .build/obj_sofle_rev1_EGF2/quantum/keyboard.o (symbol from plugin)
eeprom_read_block                                 .build/obj_sofle_rev1_EGF2/eeprom_wear_leveling.o (symbol from plugin)
                                                  .build/obj_sofle_rev1_EGF2/eeprom_driver.o (symbol from plugin)
eeprom_read_byte                                  .build/obj_sofle_rev1_EGF2/eeprom_driver.o (symbol from plugin)
                                                  .build/obj_sofle_rev1_EGF2/quantum/velocikey.o (symbol from plugin)
                                                  .build/obj_sofle_rev1_EGF2/quantum/eeconfig.o (symbol from plugin)
eeprom_read_dword                                 .build/obj_sofle_rev1_EGF2/eeprom_driver.o (symbol from plugin)
                                                  .build/obj_sofle_rev1_EGF2/quantum/rgblight/rgblight.o (symbol from plugin)
                                                  .build/obj_sofle_rev1_EGF2/quantum/eeconfig.o (symbol from plugin)
eeprom_read_word                                  .build/obj_sofle_rev1_EGF2/eeprom_driver.o (symbol from plugin)
                                                  .build/obj_sofle_rev1_EGF2/quantum/eeconfig.o (symbol from plugin)
eeprom_update_block                               .build/obj_sofle_rev1_EGF2/eeprom_driver.o (symbol from plugin)
eeprom_update_byte                                .build/obj_sofle_rev1_EGF2/eeprom_driver.o (symbol from plugin)
                                                  .build/obj_sofle_rev1_EGF2/quantum/velocikey.o (symbol from plugin)
                                                  .build/obj_sofle_rev1_EGF2/quantum/eeconfig.o (symbol from plugin)
eeprom_update_dword                               .build/obj_sofle_rev1_EGF2/eeprom_driver.o (symbol from plugin)
                                                  .build/obj_sofle_rev1_EGF2/quantum/rgblight/rgblight.o (symbol from plugin)
                                                  .build/obj_sofle_rev1_EGF2/quantum/eeconfig.o (symbol from plugin)
eeprom_update_word                                .build/obj_sofle_rev1_EGF2/eeprom_driver.o (symbol from plugin)
                                                  .build/obj_sofle_rev1_EGF2/quantum/eeconfig.o (symbol from plugin)
eeprom_wear_leveling.c.47dc4d17                   /tmp/cc4Fj2P6debugobj
                                                  /tmp/ccxW9Zd7.ltrans0.ltrans.o
eeprom_write_block                                .build/obj_sofle_rev1_EGF2/eeprom_wear_leveling.o (symbol from plugin)
                                                  .build/obj_sofle_rev1_EGF2/eeprom_driver.o (symbol from plugin)
eeprom_write_byte                                 .build/obj_sofle_rev1_EGF2/eeprom_driver.o (symbol from plugin)
eeprom_write_dword                                .build/obj_sofle_rev1_EGF2/eeprom_driver.o (symbol from plugin)
eeprom_write_word                                 .build/obj_sofle_rev1_EGF2/eeprom_driver.o (symbol from plugin)
encoder.c.d0522bb8                                /tmp/cc4Fj2P6debugobj
                                                  /tmp/ccxW9Zd7.ltrans0.ltrans.o
encoder_init                                      .build/obj_sofle_rev1_EGF2/quantum/encoder.o (symbol from plugin)
                                                  .build/obj_sofle_rev1_EGF2/quantum/keyboard.o (symbol from plugin)
encoder_read                                      .build/obj_sofle_rev1_EGF2/quantum/encoder.o (symbol from plugin)
                                                  .build/obj_sofle_rev1_EGF2/quantum/keyboard.o (symbol from plugin)
encoder_state_raw                                 .build/obj_sofle_rev1_EGF2/quantum/encoder.o (symbol from plugin)
                                                  .build/obj_sofle_rev1_EGF2/quantum/split_common/transactions.o (symbol from plugin)
encoder_update_kb                                 .build/obj_sofle_rev1_EGF2/quantum/encoder.o (symbol from plugin)
encoder_update_raw                                .build/obj_sofle_rev1_EGF2/quantum/encoder.o (symbol from plugin)
                                                  .build/obj_sofle_rev1_EGF2/quantum/split_common/transactions.o (symbol from plugin)
encoder_update_user                               .build/obj_sofle_rev1_EGF2/quantum/keymap_introspection.o (symbol from plugin)
encoder_wait_pullup_charge                        .build/obj_sofle_rev1_EGF2/quantum/encoder.o (symbol from plugin)
enter_bootloader_mode_if_requested                .build/obj_sofle_rev1_EGF2/platforms/chibios/bootloaders/rp2040.o (symbol from plugin)
errno                                             /usr/lib/gcc/arm-none-eabi/8.3.1/../../../arm-none-eabi/lib/thumb/v6-m/nofp/libg_nano.a(lib_a-reent.o)
                                                  /usr/lib/gcc/arm-none-eabi/8.3.1/../../../arm-none-eabi/lib/thumb/v6-m/nofp/libg_nano.a(lib_a-signalr.o)
event_queue                                       .build/obj_sofle_rev1_EGF2/protocol/chibios/usb_main.o (symbol from plugin)
event_queue_head                                  .build/obj_sofle_rev1_EGF2/protocol/chibios/usb_main.o (symbol from plugin)
event_queue_tail                                  .build/obj_sofle_rev1_EGF2/protocol/chibios/usb_main.o (symbol from plugin)
extra_report_blank                                .build/obj_sofle_rev1_EGF2/protocol/chibios/usb_main.o (symbol from plugin)
extract_mod_bits                                  .build/obj_sofle_rev1_EGF2/quantum/quantum.o (symbol from plugin)
fctprintf                                         .build/obj_sofle_rev1_EGF2/printf.o (symbol from plugin)
fflush                                            /usr/lib/gcc/arm-none-eabi/8.3.1/../../../arm-none-eabi/lib/thumb/v6-m/nofp/libg_nano.a(lib_a-fflush.o)
fiprintf                                          /usr/lib/gcc/arm-none-eabi/8.3.1/../../../arm-none-eabi/lib/thumb/v6-m/nofp/libg_nano.a(lib_a-fprintf.o)
                                                  /usr/lib/gcc/arm-none-eabi/8.3.1/../../../arm-none-eabi/lib/thumb/v6-m/nofp/libg_nano.a(lib_a-assert.o)
flash.c.875034b5                                  /tmp/cc4Fj2P6debugobj
                                                  /tmp/ccxW9Zd7.ltrans0.ltrans.o
flashGetAddressOffset                             .build/obj_sofle_rev1/lib/chibios/os/hal/src/hal_flash.o (symbol from plugin)
flashGetOffsetAddress                             .build/obj_sofle_rev1/lib/chibios/os/hal/src/hal_flash.o (symbol from plugin)
flashGetOffsetSector                              .build/obj_sofle_rev1/lib/chibios/os/hal/src/hal_flash.o (symbol from plugin)
flashGetSectorOffset                              .build/obj_sofle_rev1/lib/chibios/os/hal/src/hal_flash.o (symbol from plugin)
flashGetSectorSize                                .build/obj_sofle_rev1/lib/chibios/os/hal/src/hal_flash.o (symbol from plugin)
flashWaitErase                                    .build/obj_sofle_rev1/lib/chibios/os/hal/src/hal_flash.o (symbol from plugin)
flash_do_cmd                                      .build/obj_sofle_rev1/./lib/pico-sdk/src/rp2_common/hardware_flash/flash.o (symbol from plugin)
flash_get_unique_id                               .build/obj_sofle_rev1/./lib/pico-sdk/src/rp2_common/hardware_flash/flash.o (symbol from plugin)
                                                  .build/obj_sofle_rev1_EGF2/platforms/chibios/hardware_id.o (symbol from plugin)
flash_range_erase                                 .build/obj_sofle_rev1/./lib/pico-sdk/src/rp2_common/hardware_flash/flash.o (symbol from plugin)
                                                  .build/obj_sofle_rev1_EGF2/wear_leveling_rp2040_flash.o (symbol from plugin)
flash_range_program                               .build/obj_sofle_rev1/./lib/pico-sdk/src/rp2_common/hardware_flash/flash.o (symbol from plugin)
fnv_32a_buf                                       .build/obj_sofle_rev1_EGF2/hash_32a.o (symbol from plugin)
fnv_32a_str                                       .build/obj_sofle_rev1_EGF2/hash_32a.o (symbol from plugin)
fnv_64a_buf                                       .build/obj_sofle_rev1_EGF2/hash_64a.o (symbol from plugin)
                                                  .build/obj_sofle_rev1_EGF2/wear_leveling.o (symbol from plugin)
fnv_64a_str                                       .build/obj_sofle_rev1_EGF2/hash_64a.o (symbol from plugin)
fprintf                                           /usr/lib/gcc/arm-none-eabi/8.3.1/../../../arm-none-eabi/lib/thumb/v6-m/nofp/libg_nano.a(lib_a-fprintf.o)
free                                              /usr/lib/gcc/arm-none-eabi/8.3.1/../../../arm-none-eabi/lib/thumb/v6-m/nofp/libg_nano.a(lib_a-malloc.o)
frequency_count_khz                               .build/obj_sofle_rev1/./lib/pico-sdk/src/rp2_common/hardware_clocks/clocks.o (symbol from plugin)
get_current_wpm                                   .build/obj_sofle_rev1_EGF2/quantum/wpm.o (symbol from plugin)
                                                  .build/obj_sofle_rev1_EGF2/quantum/keymap_introspection.o (symbol from plugin)
get_event_keycode                                 .build/obj_sofle_rev1_EGF2/quantum/quantum.o (symbol from plugin)
get_first_key                                     .build/obj_sofle_rev1_EGF2/protocol/report.o (symbol from plugin)
get_hardware_id                                   .build/obj_sofle_rev1_EGF2/platforms/chibios/hardware_id.o (symbol from plugin)
get_mods                                          .build/obj_sofle_rev1_EGF2/quantum/action_util.o (symbol from plugin)
                                                  .build/obj_sofle_rev1_EGF2/quantum/process_keycode/process_tap_dance.o (symbol from plugin)
                                                  .build/obj_sofle_rev1_EGF2/quantum/process_keycode/process_grave_esc.o (symbol from plugin)
                                                  .build/obj_sofle_rev1_EGF2/quantum/process_keycode/process_rgb.o (symbol from plugin)
get_numeric_str                                   .build/obj_sofle_rev1_EGF2/quantum/quantum.o (symbol from plugin)
get_oneshot_layer                                 .build/obj_sofle_rev1_EGF2/quantum/action_util.o (symbol from plugin)
                                                  .build/obj_sofle_rev1_EGF2/quantum/action.o (symbol from plugin)
get_oneshot_layer_state                           .build/obj_sofle_rev1_EGF2/quantum/action_util.o (symbol from plugin)
                                                  .build/obj_sofle_rev1_EGF2/quantum/action.o (symbol from plugin)
get_oneshot_locked_mods                           .build/obj_sofle_rev1_EGF2/quantum/action_util.o (symbol from plugin)
get_oneshot_mods                                  .build/obj_sofle_rev1_EGF2/quantum/action_util.o (symbol from plugin)
                                                  .build/obj_sofle_rev1_EGF2/quantum/process_keycode/process_tap_dance.o (symbol from plugin)
                                                  .build/obj_sofle_rev1_EGF2/quantum/action.o (symbol from plugin)
get_record_keycode                                .build/obj_sofle_rev1_EGF2/quantum/quantum.o (symbol from plugin)
get_u16_str                                       .build/obj_sofle_rev1_EGF2/quantum/quantum.o (symbol from plugin)
get_u8_str                                        .build/obj_sofle_rev1_EGF2/quantum/quantum.o (symbol from plugin)
                                                  .build/obj_sofle_rev1_EGF2/quantum/keymap_introspection.o (symbol from plugin)
get_usb_descriptor                                .build/obj_sofle_rev1_EGF2/usb_descriptor.o (symbol from plugin)
                                                  .build/obj_sofle_rev1_EGF2/protocol/chibios/usb_main.o (symbol from plugin)
get_weak_mods                                     .build/obj_sofle_rev1_EGF2/quantum/action_util.o (symbol from plugin)
                                                  .build/obj_sofle_rev1_EGF2/quantum/process_keycode/process_tap_dance.o (symbol from plugin)
gnu_lto_v1                                        /tmp/cc4Fj2P6debugobj
gpio.c.a32823bd                                   /tmp/cc4Fj2P6debugobj
                                                  /tmp/ccxW9Zd7.ltrans0.ltrans.o
gpio_acknowledge_irq                              .build/obj_sofle_rev1/./lib/pico-sdk/src/rp2_common/hardware_gpio/gpio.o (symbol from plugin)
gpio_add_raw_irq_handler_masked                   .build/obj_sofle_rev1/./lib/pico-sdk/src/rp2_common/hardware_gpio/gpio.o (symbol from plugin)
gpio_add_raw_irq_handler_with_order_priority_masked .build/obj_sofle_rev1/./lib/pico-sdk/src/rp2_common/hardware_gpio/gpio.o (symbol from plugin)
gpio_debug_pins_init                              .build/obj_sofle_rev1/./lib/pico-sdk/src/rp2_common/hardware_gpio/gpio.o (symbol from plugin)
gpio_deinit                                       .build/obj_sofle_rev1/./lib/pico-sdk/src/rp2_common/hardware_gpio/gpio.o (symbol from plugin)
gpio_get_drive_strength                           .build/obj_sofle_rev1/./lib/pico-sdk/src/rp2_common/hardware_gpio/gpio.o (symbol from plugin)
gpio_get_function                                 .build/obj_sofle_rev1/./lib/pico-sdk/src/rp2_common/hardware_gpio/gpio.o (symbol from plugin)
gpio_get_pad                                      .build/obj_sofle_rev1/./lib/pico-sdk/src/rp2_common/hardware_gpio/gpio.o (symbol from plugin)
gpio_get_slew_rate                                .build/obj_sofle_rev1/./lib/pico-sdk/src/rp2_common/hardware_gpio/gpio.o (symbol from plugin)
gpio_init                                         .build/obj_sofle_rev1/./lib/pico-sdk/src/rp2_common/hardware_gpio/gpio.o (symbol from plugin)
gpio_init_mask                                    .build/obj_sofle_rev1/./lib/pico-sdk/src/rp2_common/hardware_gpio/gpio.o (symbol from plugin)
gpio_is_input_hysteresis_enabled                  .build/obj_sofle_rev1/./lib/pico-sdk/src/rp2_common/hardware_gpio/gpio.o (symbol from plugin)
gpio_remove_raw_irq_handler_masked                .build/obj_sofle_rev1/./lib/pico-sdk/src/rp2_common/hardware_gpio/gpio.o (symbol from plugin)
gpio_set_dormant_irq_enabled                      .build/obj_sofle_rev1/./lib/pico-sdk/src/rp2_common/hardware_gpio/gpio.o (symbol from plugin)
gpio_set_drive_strength                           /tmp/ccxW9Zd7.ltrans0.ltrans.o
                                                  .build/obj_sofle_rev1/./lib/pico-sdk/src/rp2_common/hardware_gpio/gpio.o (symbol from plugin)
                                                  .build/obj_sofle_rev1_EGF2/serial_vendor.a(serial_vendor.o)
gpio_set_function                                 .build/obj_sofle_rev1/./lib/pico-sdk/src/rp2_common/hardware_gpio/gpio.o (symbol from plugin)
                                                  .build/obj_sofle_rev1/./lib/pico-sdk/src/rp2_common/hardware_clocks/clocks.o (symbol from plugin)
gpio_set_inover                                   .build/obj_sofle_rev1/./lib/pico-sdk/src/rp2_common/hardware_gpio/gpio.o (symbol from plugin)
gpio_set_input_enabled                            .build/obj_sofle_rev1/./lib/pico-sdk/src/rp2_common/hardware_gpio/gpio.o (symbol from plugin)
gpio_set_input_hysteresis_enabled                 .build/obj_sofle_rev1/./lib/pico-sdk/src/rp2_common/hardware_gpio/gpio.o (symbol from plugin)
gpio_set_irq_callback                             .build/obj_sofle_rev1/./lib/pico-sdk/src/rp2_common/hardware_gpio/gpio.o (symbol from plugin)
gpio_set_irq_enabled                              .build/obj_sofle_rev1/./lib/pico-sdk/src/rp2_common/hardware_gpio/gpio.o (symbol from plugin)
gpio_set_irq_enabled_with_callback                .build/obj_sofle_rev1/./lib/pico-sdk/src/rp2_common/hardware_gpio/gpio.o (symbol from plugin)
gpio_set_irqover                                  .build/obj_sofle_rev1/./lib/pico-sdk/src/rp2_common/hardware_gpio/gpio.o (symbol from plugin)
gpio_set_oeover                                   .build/obj_sofle_rev1/./lib/pico-sdk/src/rp2_common/hardware_gpio/gpio.o (symbol from plugin)
gpio_set_outover                                  .build/obj_sofle_rev1/./lib/pico-sdk/src/rp2_common/hardware_gpio/gpio.o (symbol from plugin)
gpio_set_pulls                                    .build/obj_sofle_rev1/./lib/pico-sdk/src/rp2_common/hardware_gpio/gpio.o (symbol from plugin)
gpio_set_slew_rate                                .build/obj_sofle_rev1/./lib/pico-sdk/src/rp2_common/hardware_gpio/gpio.o (symbol from plugin)
hal.c.aa4687e2                                    /tmp/cc4Fj2P6debugobj
                                                  /tmp/ccxW9Zd7.ltrans0.ltrans.o
halInit                                           .build/obj_sofle_rev1/lib/chibios/os/hal/src/hal.o (symbol from plugin)
                                                  .build/obj_sofle_rev1_EGF2/platforms/chibios/platform.o (symbol from plugin)
hal_adc.c.666bc9fa                                /tmp/cc4Fj2P6debugobj
hal_adc_lld.c.36a3994b                            /tmp/cc4Fj2P6debugobj
hal_buffers.c.e54f5ac5                            /tmp/cc4Fj2P6debugobj
hal_can.c.9928c3ea                                /tmp/cc4Fj2P6debugobj
hal_crypto.c.eb46ffde                             /tmp/cc4Fj2P6debugobj
hal_dac.c.e9301ad2                                /tmp/cc4Fj2P6debugobj
hal_efl.c.c4c387fe                                /tmp/cc4Fj2P6debugobj
hal_flash.c.998172fe                              /tmp/cc4Fj2P6debugobj
hal_gpt.c.dad74eea                                /tmp/cc4Fj2P6debugobj
hal_i2c.c.9ba176e1                                /tmp/cc4Fj2P6debugobj
                                                  /tmp/ccxW9Zd7.ltrans0.ltrans.o
hal_i2c_lld.c.586152fa                            /tmp/cc4Fj2P6debugobj
                                                  /tmp/ccxW9Zd7.ltrans0.ltrans.o
hal_i2s.c.9e832809                                /tmp/cc4Fj2P6debugobj
hal_icu.c.324aadec                                /tmp/cc4Fj2P6debugobj
hal_lld.c.88716e66                                /tmp/cc4Fj2P6debugobj
                                                  /tmp/ccxW9Zd7.ltrans0.ltrans.o
hal_lld_init                                      .build/obj_sofle_rev1/lib/chibios/os/hal/ports/RP/RP2040/hal_lld.o (symbol from plugin)
                                                  .build/obj_sofle_rev1/lib/chibios/os/hal/src/hal.o (symbol from plugin)
hal_mac.c.eb8814da                                /tmp/cc4Fj2P6debugobj
hal_mmc_spi.c.679436bd                            /tmp/cc4Fj2P6debugobj
hal_mmcsd.c.64b87718                              /tmp/cc4Fj2P6debugobj
hal_pal.c.a798b6a4                                /tmp/cc4Fj2P6debugobj
                                                  /tmp/ccxW9Zd7.ltrans0.ltrans.o
hal_pal_lld.c.fcd2767f                            /tmp/cc4Fj2P6debugobj
                                                  /tmp/ccxW9Zd7.ltrans0.ltrans.o
hal_pwm.c.2f922100                                /tmp/cc4Fj2P6debugobj
hal_pwm_lld.c.5f662231                            /tmp/cc4Fj2P6debugobj
hal_queues.c.d97d508a                             /tmp/cc4Fj2P6debugobj
hal_rtc.c.9232035e                                /tmp/cc4Fj2P6debugobj
hal_rtc_lld.c.af65193f                            /tmp/cc4Fj2P6debugobj
hal_sdc.c.1b106d5c                                /tmp/cc4Fj2P6debugobj
hal_serial.c.6b601c39                             /tmp/cc4Fj2P6debugobj
hal_serial_usb.c.5ecde40b                         /tmp/cc4Fj2P6debugobj
hal_sio.c.755a40d0                                /tmp/cc4Fj2P6debugobj
hal_sio_lld.c.c7812b08                            /tmp/cc4Fj2P6debugobj
hal_spi.c.c9d52a05                                /tmp/cc4Fj2P6debugobj
                                                  /tmp/ccxW9Zd7.ltrans0.ltrans.o
hal_spi_lld.c.2ed345ef                            /tmp/cc4Fj2P6debugobj
                                                  /tmp/ccxW9Zd7.ltrans0.ltrans.o
hal_st.c.68279df3                                 /tmp/cc4Fj2P6debugobj
                                                  /tmp/ccxW9Zd7.ltrans0.ltrans.o
hal_st_lld.c.dc21891f                             /tmp/cc4Fj2P6debugobj
                                                  /tmp/ccxW9Zd7.ltrans0.ltrans.o
hal_trng.c.ff3e8bf1                               /tmp/cc4Fj2P6debugobj
hal_uart.c.2e7c6fa5                               /tmp/cc4Fj2P6debugobj
hal_usb.c.1e150249                                /tmp/cc4Fj2P6debugobj
                                                  /tmp/ccxW9Zd7.ltrans0.ltrans.o
hal_usb_lld.c.618e7db4                            /tmp/cc4Fj2P6debugobj
                                                  /tmp/ccxW9Zd7.ltrans0.ltrans.o
hal_wdg.c.7075dbbc                                /tmp/cc4Fj2P6debugobj
hal_wdg_lld.c.3f5f0112                            /tmp/cc4Fj2P6debugobj
hal_wspi.c.8e9237e2                               /tmp/cc4Fj2P6debugobj
hand_swap_config                                  .build/obj_sofle_rev1_EGF2/keyboards/sofle/sofle.o (symbol from plugin)
                                                  .build/obj_sofle_rev1_EGF2/quantum/action.o (symbol from plugin)
hard_assertion_failure                            .build/obj_sofle_rev1/platforms/chibios/vendors/RP/pico_sdk_shims.o (symbol from plugin)
                                                  .build/obj_sofle_rev1/./lib/pico-sdk/src/rp2_common/hardware_gpio/gpio.o (symbol from plugin)
                                                  .build/obj_sofle_rev1/./lib/pico-sdk/src/rp2_common/hardware_flash/flash.o (symbol from plugin)
hardware_id.c.05bf9624                            /tmp/cc4Fj2P6debugobj
has_anykey                                        .build/obj_sofle_rev1_EGF2/protocol/report.o (symbol from plugin)
                                                  .build/obj_sofle_rev1_EGF2/quantum/action_util.o (symbol from plugin)
has_anymod                                        .build/obj_sofle_rev1_EGF2/quantum/action_util.o (symbol from plugin)
has_mouse_report_changed                          .build/obj_sofle_rev1_EGF2/protocol/report.o (symbol from plugin)
                                                  .build/obj_sofle_rev1_EGF2/quantum/mousekey.o (symbol from plugin)
has_oneshot_mods_timed_out                        .build/obj_sofle_rev1_EGF2/quantum/action_util.o (symbol from plugin)
hash_32a.c.d97a86b0                               /tmp/cc4Fj2P6debugobj
hash_64a.c.6d0ee229                               /tmp/cc4Fj2P6debugobj
                                                  /tmp/ccxW9Zd7.ltrans0.ltrans.o
host.c.796eed58                                   /tmp/cc4Fj2P6debugobj
                                                  /tmp/ccxW9Zd7.ltrans0.ltrans.o
host_consumer_send                                .build/obj_sofle_rev1_EGF2/protocol/host.o (symbol from plugin)
                                                  .build/obj_sofle_rev1_EGF2/platforms/chibios/suspend.o (symbol from plugin)
                                                  .build/obj_sofle_rev1_EGF2/quantum/action.o (symbol from plugin)
host_get_driver                                   .build/obj_sofle_rev1_EGF2/protocol/host.o (symbol from plugin)
host_keyboard_led_state                           .build/obj_sofle_rev1_EGF2/protocol/host.o (symbol from plugin)
host_keyboard_leds                                .build/obj_sofle_rev1_EGF2/protocol/host.o (symbol from plugin)
                                                  .build/obj_sofle_rev1_EGF2/quantum/action.o (symbol from plugin)
                                                  .build/obj_sofle_rev1_EGF2/quantum/led.o (symbol from plugin)
host_keyboard_send                                .build/obj_sofle_rev1_EGF2/protocol/host.o (symbol from plugin)
                                                  .build/obj_sofle_rev1_EGF2/quantum/action_util.o (symbol from plugin)
host_last_consumer_usage                          .build/obj_sofle_rev1_EGF2/protocol/host.o (symbol from plugin)
host_last_system_usage                            .build/obj_sofle_rev1_EGF2/protocol/host.o (symbol from plugin)
host_mouse_send                                   .build/obj_sofle_rev1_EGF2/protocol/host.o (symbol from plugin)
                                                  .build/obj_sofle_rev1_EGF2/quantum/mousekey.o (symbol from plugin)
host_set_driver                                   .build/obj_sofle_rev1_EGF2/protocol/host.o (symbol from plugin)
                                                  .build/obj_sofle_rev1_EGF2/protocol/chibios/chibios.o (symbol from plugin)
host_system_send                                  .build/obj_sofle_rev1_EGF2/protocol/host.o (symbol from plugin)
                                                  .build/obj_sofle_rev1_EGF2/platforms/chibios/suspend.o (symbol from plugin)
                                                  .build/obj_sofle_rev1_EGF2/quantum/action.o (symbol from plugin)
housekeeping_task                                 .build/obj_sofle_rev1_EGF2/quantum/keyboard.o (symbol from plugin)
                                                  .build/obj_sofle_rev1_EGF2/quantum/main.o (symbol from plugin)
housekeeping_task_kb                              .build/obj_sofle_rev1_EGF2/quantum/keyboard.o (symbol from plugin)
housekeeping_task_user                            .build/obj_sofle_rev1_EGF2/quantum/keyboard.o (symbol from plugin)
hsv_to_rgb                                        .build/obj_sofle_rev1_EGF2/quantum/color.o (symbol from plugin)
                                                  .build/obj_sofle_rev1_EGF2/quantum/rgblight/rgblight.o (symbol from plugin)
hsv_to_rgb_impl                                   .build/obj_sofle_rev1_EGF2/quantum/color.o (symbol from plugin)
hsv_to_rgb_nocie                                  .build/obj_sofle_rev1_EGF2/quantum/color.o (symbol from plugin)
hw_claim_clear                                    .build/obj_sofle_rev1/./lib/pico-sdk/src/rp2_common/hardware_claim/claim.o (symbol from plugin)
                                                  .build/obj_sofle_rev1/./lib/pico-sdk/src/rp2_common/hardware_pio/pio.o (symbol from plugin)
hw_claim_lock                                     .build/obj_sofle_rev1/./lib/pico-sdk/src/rp2_common/hardware_claim/claim.o (symbol from plugin)
                                                  .build/obj_sofle_rev1/./lib/pico-sdk/src/rp2_common/hardware_pio/pio.o (symbol from plugin)
hw_claim_or_assert                                .build/obj_sofle_rev1/./lib/pico-sdk/src/rp2_common/hardware_claim/claim.o (symbol from plugin)
                                                  .build/obj_sofle_rev1/./lib/pico-sdk/src/rp2_common/hardware_pio/pio.o (symbol from plugin)
hw_claim_unlock                                   .build/obj_sofle_rev1/./lib/pico-sdk/src/rp2_common/hardware_claim/claim.o (symbol from plugin)
                                                  .build/obj_sofle_rev1/./lib/pico-sdk/src/rp2_common/hardware_pio/pio.o (symbol from plugin)
hw_claim_unused_from_range                        .build/obj_sofle_rev1/./lib/pico-sdk/src/rp2_common/hardware_claim/claim.o (symbol from plugin)
                                                  .build/obj_sofle_rev1/./lib/pico-sdk/src/rp2_common/hardware_pio/pio.o (symbol from plugin)
hw_is_claimed                                     .build/obj_sofle_rev1/./lib/pico-sdk/src/rp2_common/hardware_claim/claim.o (symbol from plugin)
                                                  .build/obj_sofle_rev1/./lib/pico-sdk/src/rp2_common/hardware_pio/pio.o (symbol from plugin)
i2cAcquireBus                                     .build/obj_sofle_rev1/lib/chibios/os/hal/src/hal_i2c.o (symbol from plugin)
i2cGetErrors                                      .build/obj_sofle_rev1/lib/chibios/os/hal/src/hal_i2c.o (symbol from plugin)
i2cInit                                           .build/obj_sofle_rev1/lib/chibios/os/hal/src/hal_i2c.o (symbol from plugin)
                                                  .build/obj_sofle_rev1/lib/chibios/os/hal/src/hal.o (symbol from plugin)
i2cMasterReceiveTimeout                           /tmp/ccxW9Zd7.ltrans0.ltrans.o
                                                  .build/obj_sofle_rev1/lib/chibios/os/hal/src/hal_i2c.o (symbol from plugin)
                                                  .build/obj_sofle_rev1_EGF2/i2c_master.a(i2c_master.o)
i2cMasterTransmitTimeout                          /tmp/ccxW9Zd7.ltrans0.ltrans.o
                                                  .build/obj_sofle_rev1/lib/chibios/os/hal/src/hal_i2c.o (symbol from plugin)
                                                  .build/obj_sofle_rev1_EGF2/i2c_master.a(i2c_master.o)
i2cObjectInit                                     .build/obj_sofle_rev1/lib/chibios/os/hal/src/hal_i2c.o (symbol from plugin)
                                                  .build/obj_sofle_rev1/lib/chibios-contrib/os/hal/ports/RP/LLD/I2Cv1/hal_i2c_lld.o (symbol from plugin)
i2cReleaseBus                                     .build/obj_sofle_rev1/lib/chibios/os/hal/src/hal_i2c.o (symbol from plugin)
i2cStart                                          /tmp/ccxW9Zd7.ltrans0.ltrans.o
                                                  .build/obj_sofle_rev1/lib/chibios/os/hal/src/hal_i2c.o (symbol from plugin)
                                                  .build/obj_sofle_rev1_EGF2/i2c_master.a(i2c_master.o)
i2cStop                                           /tmp/ccxW9Zd7.ltrans0.ltrans.o
                                                  .build/obj_sofle_rev1/lib/chibios/os/hal/src/hal_i2c.o (symbol from plugin)
                                                  .build/obj_sofle_rev1_EGF2/i2c_master.a(i2c_master.o)
i2c_init                                          .build/obj_sofle_rev1_EGF2/i2c_master.a(i2c_master.o)
                                                  /tmp/ccxW9Zd7.ltrans0.ltrans.o
                                                  .build/obj_sofle_rev1_EGF2/ssd1306_sh1106.o (symbol from plugin)
i2c_lld_handle_errors                             .build/obj_sofle_rev1/lib/chibios-contrib/os/hal/ports/RP/LLD/I2Cv1/hal_i2c_lld.o (symbol from plugin)
i2c_lld_init                                      .build/obj_sofle_rev1/lib/chibios-contrib/os/hal/ports/RP/LLD/I2Cv1/hal_i2c_lld.o (symbol from plugin)
                                                  .build/obj_sofle_rev1/lib/chibios/os/hal/src/hal_i2c.o (symbol from plugin)
i2c_lld_master_receive_timeout                    .build/obj_sofle_rev1/lib/chibios-contrib/os/hal/ports/RP/LLD/I2Cv1/hal_i2c_lld.o (symbol from plugin)
                                                  .build/obj_sofle_rev1/lib/chibios/os/hal/src/hal_i2c.o (symbol from plugin)
i2c_lld_master_transmit_timeout                   .build/obj_sofle_rev1/lib/chibios-contrib/os/hal/ports/RP/LLD/I2Cv1/hal_i2c_lld.o (symbol from plugin)
                                                  .build/obj_sofle_rev1/lib/chibios/os/hal/src/hal_i2c.o (symbol from plugin)
i2c_lld_start                                     .build/obj_sofle_rev1/lib/chibios-contrib/os/hal/ports/RP/LLD/I2Cv1/hal_i2c_lld.o (symbol from plugin)
                                                  .build/obj_sofle_rev1/lib/chibios/os/hal/src/hal_i2c.o (symbol from plugin)
i2c_lld_stop                                      .build/obj_sofle_rev1/lib/chibios-contrib/os/hal/ports/RP/LLD/I2Cv1/hal_i2c_lld.o (symbol from plugin)
                                                  .build/obj_sofle_rev1/lib/chibios/os/hal/src/hal_i2c.o (symbol from plugin)
i2c_readReg                                       .build/obj_sofle_rev1_EGF2/i2c_master.a(i2c_master.o)
i2c_readReg16                                     .build/obj_sofle_rev1_EGF2/i2c_master.a(i2c_master.o)
i2c_receive                                       .build/obj_sofle_rev1_EGF2/i2c_master.a(i2c_master.o)
i2c_start                                         .build/obj_sofle_rev1_EGF2/i2c_master.a(i2c_master.o)
i2c_stop                                          .build/obj_sofle_rev1_EGF2/i2c_master.a(i2c_master.o)
i2c_transmit                                      .build/obj_sofle_rev1_EGF2/i2c_master.a(i2c_master.o)
                                                  /tmp/ccxW9Zd7.ltrans0.ltrans.o
                                                  .build/obj_sofle_rev1_EGF2/ssd1306_sh1106.o (symbol from plugin)
i2c_writeReg                                      .build/obj_sofle_rev1_EGF2/i2c_master.a(i2c_master.o)
                                                  /tmp/ccxW9Zd7.ltrans0.ltrans.o
                                                  .build/obj_sofle_rev1_EGF2/ssd1306_sh1106.o (symbol from plugin)
i2c_writeReg16                                    .build/obj_sofle_rev1_EGF2/i2c_master.a(i2c_master.o)
ibqGetEmptyBufferI                                .build/obj_sofle_rev1/lib/chibios/os/hal/src/hal_buffers.o (symbol from plugin)
                                                  .build/obj_sofle_rev1_EGF2/protocol/chibios/usb_driver.o (symbol from plugin)
ibqGetFullBufferTimeout                           .build/obj_sofle_rev1/lib/chibios/os/hal/src/hal_buffers.o (symbol from plugin)
ibqGetFullBufferTimeoutS                          .build/obj_sofle_rev1/lib/chibios/os/hal/src/hal_buffers.o (symbol from plugin)
ibqGetTimeout                                     .build/obj_sofle_rev1/lib/chibios/os/hal/src/hal_buffers.o (symbol from plugin)
                                                  .build/obj_sofle_rev1_EGF2/protocol/chibios/usb_driver.o (symbol from plugin)
ibqObjectInit                                     .build/obj_sofle_rev1/lib/chibios/os/hal/src/hal_buffers.o (symbol from plugin)
                                                  .build/obj_sofle_rev1_EGF2/protocol/chibios/usb_driver.o (symbol from plugin)
ibqPostFullBufferI                                .build/obj_sofle_rev1/lib/chibios/os/hal/src/hal_buffers.o (symbol from plugin)
                                                  .build/obj_sofle_rev1_EGF2/protocol/chibios/usb_driver.o (symbol from plugin)
ibqReadTimeout                                    .build/obj_sofle_rev1/lib/chibios/os/hal/src/hal_buffers.o (symbol from plugin)
                                                  .build/obj_sofle_rev1_EGF2/protocol/chibios/usb_driver.o (symbol from plugin)
ibqReleaseEmptyBuffer                             .build/obj_sofle_rev1/lib/chibios/os/hal/src/hal_buffers.o (symbol from plugin)
ibqReleaseEmptyBufferS                            .build/obj_sofle_rev1/lib/chibios/os/hal/src/hal_buffers.o (symbol from plugin)
ibqResetI                                         .build/obj_sofle_rev1/lib/chibios/os/hal/src/hal_buffers.o (symbol from plugin)
                                                  .build/obj_sofle_rev1_EGF2/protocol/chibios/usb_driver.o (symbol from plugin)
init_usb_driver                                   .build/obj_sofle_rev1_EGF2/protocol/chibios/usb_main.o (symbol from plugin)
                                                  .build/obj_sofle_rev1_EGF2/protocol/chibios/chibios.o (symbol from plugin)
iqGetI                                            .build/obj_sofle_rev1/lib/chibios/os/hal/src/hal_queues.o (symbol from plugin)
iqGetTimeout                                      .build/obj_sofle_rev1/lib/chibios/os/hal/src/hal_queues.o (symbol from plugin)
iqObjectInit                                      .build/obj_sofle_rev1/lib/chibios/os/hal/src/hal_queues.o (symbol from plugin)
iqPutI                                            .build/obj_sofle_rev1/lib/chibios/os/hal/src/hal_queues.o (symbol from plugin)
iqReadI                                           .build/obj_sofle_rev1/lib/chibios/os/hal/src/hal_queues.o (symbol from plugin)
iqReadTimeout                                     .build/obj_sofle_rev1/lib/chibios/os/hal/src/hal_queues.o (symbol from plugin)
iqResetI                                          .build/obj_sofle_rev1/lib/chibios/os/hal/src/hal_queues.o (symbol from plugin)
irqDeinit                                         .build/obj_sofle_rev1/lib/chibios/os/hal/ports/RP/RP2040/rp_isr.o (symbol from plugin)
irqInit                                           .build/obj_sofle_rev1/lib/chibios/os/hal/ports/RP/RP2040/rp_isr.o (symbol from plugin)
                                                  .build/obj_sofle_rev1/lib/chibios/os/hal/ports/RP/RP2040/hal_lld.o (symbol from plugin)
irq_add_shared_handler                            .build/obj_sofle_rev1/./lib/pico-sdk/src/rp2_common/hardware_gpio/gpio.o (symbol from plugin)
irq_remove_handler                                .build/obj_sofle_rev1/./lib/pico-sdk/src/rp2_common/hardware_gpio/gpio.o (symbol from plugin)
irq_set_enabled                                   .build/obj_sofle_rev1/./lib/pico-sdk/src/rp2_common/hardware_gpio/gpio.o (symbol from plugin)
                                                  .build/obj_sofle_rev1/./lib/pico-sdk/src/rp2_common/hardware_clocks/clocks.o (symbol from plugin)
irq_set_exclusive_handler                         .build/obj_sofle_rev1/./lib/pico-sdk/src/rp2_common/hardware_clocks/clocks.o (symbol from plugin)
isLeftHand                                        .build/obj_sofle_rev1_EGF2/quantum/split_common/split_util.o (symbol from plugin)
                                                  .build/obj_sofle_rev1_EGF2/quantum/encoder.o (symbol from plugin)
                                                  .build/obj_sofle_rev1_EGF2/quantum/matrix.o (symbol from plugin)
                                                  .build/obj_sofle_rev1_EGF2/quantum/matrix_common.o (symbol from plugin)
is_key_pressed                                    .build/obj_sofle_rev1_EGF2/protocol/report.o (symbol from plugin)
                                                  .build/obj_sofle_rev1_EGF2/quantum/action.o (symbol from plugin)
is_keyboard_left                                  .build/obj_sofle_rev1_EGF2/quantum/split_common/split_util.o (symbol from plugin)
is_keyboard_master                                .build/obj_sofle_rev1_EGF2/quantum/split_common/split_util.o (symbol from plugin)
                                                  .build/obj_sofle_rev1_EGF2/protocol/host.o (symbol from plugin)
                                                  .build/obj_sofle_rev1_EGF2/quantum/encoder.o (symbol from plugin)
                                                  .build/obj_sofle_rev1_EGF2/quantum/matrix_common.o (symbol from plugin)
                                                  .build/obj_sofle_rev1_EGF2/quantum/sync_timer.o (symbol from plugin)
                                                  .build/obj_sofle_rev1_EGF2/quantum/keyboard.o (symbol from plugin)
                                                  .build/obj_sofle_rev1_EGF2/quantum/keymap_introspection.o (symbol from plugin)
is_oled_on                                        .build/obj_sofle_rev1_EGF2/ssd1306_sh1106.o (symbol from plugin)
is_oled_scrolling                                 .build/obj_sofle_rev1_EGF2/ssd1306_sh1106.o (symbol from plugin)
is_oneshot_enabled                                .build/obj_sofle_rev1_EGF2/quantum/action_util.o (symbol from plugin)
is_oneshot_layer_active                           .build/obj_sofle_rev1_EGF2/quantum/action_util.o (symbol from plugin)
                                                  .build/obj_sofle_rev1_EGF2/quantum/action.o (symbol from plugin)
is_rgblight_initialized                           .build/obj_sofle_rev1_EGF2/quantum/rgblight/rgblight.o (symbol from plugin)
is_tap_action                                     .build/obj_sofle_rev1_EGF2/quantum/action.o (symbol from plugin)
is_tap_record                                     .build/obj_sofle_rev1_EGF2/quantum/action.o (symbol from plugin)
                                                  .build/obj_sofle_rev1_EGF2/quantum/action_tapping.o (symbol from plugin)
is_transport_connected                            .build/obj_sofle_rev1_EGF2/quantum/split_common/split_util.o (symbol from plugin)
                                                  .build/obj_sofle_rev1_EGF2/quantum/split_common/transactions.o (symbol from plugin)
keyboard.c.c7290995                               /tmp/cc4Fj2P6debugobj
                                                  /tmp/ccxW9Zd7.ltrans0.ltrans.o
keyboard_idle                                     .build/obj_sofle_rev1_EGF2/protocol/chibios/usb_main.o (symbol from plugin)
keyboard_idle_count                               .build/obj_sofle_rev1_EGF2/protocol/chibios/usb_main.o (symbol from plugin)
keyboard_init                                     .build/obj_sofle_rev1_EGF2/quantum/keyboard.o (symbol from plugin)
                                                  .build/obj_sofle_rev1_EGF2/quantum/main.o (symbol from plugin)
keyboard_led_state                                .build/obj_sofle_rev1_EGF2/protocol/chibios/usb_main.o (symbol from plugin)
keyboard_leds                                     .build/obj_sofle_rev1_EGF2/protocol/chibios/usb_main.o (symbol from plugin)
                                                  .build/obj_sofle_rev1_EGF2/protocol/chibios/chibios.o (symbol from plugin)
keyboard_post_init_kb                             .build/obj_sofle_rev1_EGF2/quantum/keyboard.o (symbol from plugin)
keyboard_post_init_user                           .build/obj_sofle_rev1_EGF2/quantum/keymap_introspection.o (symbol from plugin)
keyboard_pre_init_kb                              .build/obj_sofle_rev1_EGF2/quantum/keyboard.o (symbol from plugin)
keyboard_pre_init_user                            .build/obj_sofle_rev1_EGF2/quantum/keyboard.o (symbol from plugin)
keyboard_protocol                                 .build/obj_sofle_rev1_EGF2/protocol/chibios/usb_main.o (symbol from plugin)
keyboard_report                                   .build/obj_sofle_rev1_EGF2/quantum/action_util.o (symbol from plugin)
                                                  .build/obj_sofle_rev1_EGF2/platforms/chibios/suspend.o (symbol from plugin)
                                                  .build/obj_sofle_rev1_EGF2/quantum/process_keycode/process_grave_esc.o (symbol from plugin)
                                                  .build/obj_sofle_rev1_EGF2/quantum/action.o (symbol from plugin)
keyboard_report_sent                              .build/obj_sofle_rev1_EGF2/protocol/chibios/usb_main.o (symbol from plugin)
keyboard_setup                                    .build/obj_sofle_rev1_EGF2/quantum/keyboard.o (symbol from plugin)
                                                  .build/obj_sofle_rev1_EGF2/quantum/main.o (symbol from plugin)
keyboard_task                                     .build/obj_sofle_rev1_EGF2/quantum/keyboard.o (symbol from plugin)
                                                  .build/obj_sofle_rev1_EGF2/quantum/main.o (symbol from plugin)
keycode_at_keymap_location                        .build/obj_sofle_rev1_EGF2/quantum/keymap_introspection.o (symbol from plugin)
                                                  .build/obj_sofle_rev1_EGF2/quantum/keymap_common.o (symbol from plugin)
keycode_at_keymap_location_raw                    .build/obj_sofle_rev1_EGF2/quantum/keymap_introspection.o (symbol from plugin)
keycode_config                                    .build/obj_sofle_rev1_EGF2/quantum/keycode_config.o (symbol from plugin)
                                                  .build/obj_sofle_rev1_EGF2/quantum/keymap_common.o (symbol from plugin)
keycode_config.c.b9868eb5                         /tmp/cc4Fj2P6debugobj
                                                  /tmp/ccxW9Zd7.ltrans0.ltrans.o
keymap_common.c.8739b40d                          /tmp/cc4Fj2P6debugobj
                                                  /tmp/ccxW9Zd7.ltrans0.ltrans.o
keymap_config                                     .build/obj_sofle_rev1_EGF2/quantum/bootmagic/magic.o (symbol from plugin)
                                                  .build/obj_sofle_rev1_EGF2/quantum/process_keycode/process_magic.o (symbol from plugin)
                                                  .build/obj_sofle_rev1_EGF2/quantum/keycode_config.o (symbol from plugin)
                                                  .build/obj_sofle_rev1_EGF2/quantum/action_util.o (symbol from plugin)
                                                  .build/obj_sofle_rev1_EGF2/quantum/action.o (symbol from plugin)
keymap_introspection.c.15ae5fce                   /tmp/cc4Fj2P6debugobj
                                                  /tmp/ccxW9Zd7.ltrans0.ltrans.o
keymap_key_to_keycode                             .build/obj_sofle_rev1_EGF2/quantum/keymap_common.o (symbol from plugin)
                                                  .build/obj_sofle_rev1_EGF2/quantum/quantum.o (symbol from plugin)
keymap_layer_count                                .build/obj_sofle_rev1_EGF2/quantum/keymap_introspection.o (symbol from plugin)
keymaps                                           .build/obj_sofle_rev1_EGF2/quantum/keymap_introspection.o (symbol from plugin)
last_encoder_activity_elapsed                     .build/obj_sofle_rev1_EGF2/quantum/keyboard.o (symbol from plugin)
last_encoder_activity_time                        .build/obj_sofle_rev1_EGF2/quantum/keyboard.o (symbol from plugin)
last_encoder_activity_trigger                     .build/obj_sofle_rev1_EGF2/quantum/keyboard.o (symbol from plugin)
                                                  .build/obj_sofle_rev1_EGF2/quantum/encoder.o (symbol from plugin)
last_input_activity_elapsed                       .build/obj_sofle_rev1_EGF2/quantum/keyboard.o (symbol from plugin)
last_input_activity_time                          .build/obj_sofle_rev1_EGF2/quantum/keyboard.o (symbol from plugin)
last_led_activity_elapsed                         .build/obj_sofle_rev1_EGF2/quantum/led.o (symbol from plugin)
last_led_activity_time                            .build/obj_sofle_rev1_EGF2/quantum/led.o (symbol from plugin)
last_matrix_activity_elapsed                      .build/obj_sofle_rev1_EGF2/quantum/keyboard.o (symbol from plugin)
last_matrix_activity_time                         .build/obj_sofle_rev1_EGF2/quantum/keyboard.o (symbol from plugin)
last_matrix_activity_trigger                      .build/obj_sofle_rev1_EGF2/quantum/keyboard.o (symbol from plugin)
last_suspend_state                                .build/obj_sofle_rev1_EGF2/protocol/chibios/usb_main.o (symbol from plugin)
layer_VOU_lights                                  .build/obj_sofle_rev1_EGF2/quantum/keymap_introspection.o (symbol from plugin)
layer_and                                         .build/obj_sofle_rev1_EGF2/quantum/action_layer.o (symbol from plugin)
                                                  .build/obj_sofle_rev1_EGF2/quantum/action.o (symbol from plugin)
layer_clear                                       .build/obj_sofle_rev1_EGF2/quantum/action_layer.o (symbol from plugin)
                                                  .build/obj_sofle_rev1_EGF2/quantum/action.o (symbol from plugin)
layer_debug                                       .build/obj_sofle_rev1_EGF2/quantum/action_layer.o (symbol from plugin)
                                                  .build/obj_sofle_rev1_EGF2/quantum/action.o (symbol from plugin)
layer_fkey_lights                                 .build/obj_sofle_rev1_EGF2/quantum/keymap_introspection.o (symbol from plugin)
layer_invert                                      .build/obj_sofle_rev1_EGF2/quantum/action_layer.o (symbol from plugin)
                                                  .build/obj_sofle_rev1_EGF2/quantum/action.o (symbol from plugin)
layer_level3_lights                               .build/obj_sofle_rev1_EGF2/quantum/keymap_introspection.o (symbol from plugin)
layer_level4_lights                               .build/obj_sofle_rev1_EGF2/quantum/keymap_introspection.o (symbol from plugin)
layer_move                                        .build/obj_sofle_rev1_EGF2/quantum/action_layer.o (symbol from plugin)
                                                  .build/obj_sofle_rev1_EGF2/quantum/process_keycode/process_tap_dance.o (symbol from plugin)
                                                  .build/obj_sofle_rev1_EGF2/quantum/action.o (symbol from plugin)
layer_off                                         .build/obj_sofle_rev1_EGF2/quantum/action_layer.o (symbol from plugin)
                                                  .build/obj_sofle_rev1_EGF2/quantum/action_util.o (symbol from plugin)
                                                  .build/obj_sofle_rev1_EGF2/quantum/action.o (symbol from plugin)
layer_on                                          .build/obj_sofle_rev1_EGF2/quantum/action_layer.o (symbol from plugin)
                                                  .build/obj_sofle_rev1_EGF2/quantum/action_util.o (symbol from plugin)
                                                  .build/obj_sofle_rev1_EGF2/quantum/action.o (symbol from plugin)
layer_or                                          .build/obj_sofle_rev1_EGF2/quantum/action_layer.o (symbol from plugin)
                                                  .build/obj_sofle_rev1_EGF2/quantum/action.o (symbol from plugin)
layer_qwertz_lights                               .build/obj_sofle_rev1_EGF2/quantum/keymap_introspection.o (symbol from plugin)
layer_state                                       .build/obj_sofle_rev1_EGF2/quantum/action_layer.o (symbol from plugin)
                                                  .build/obj_sofle_rev1_EGF2/quantum/bootmagic/magic.o (symbol from plugin)
                                                  .build/obj_sofle_rev1_EGF2/quantum/quantum.o (symbol from plugin)
                                                  .build/obj_sofle_rev1_EGF2/quantum/keymap_introspection.o (symbol from plugin)
layer_state_cmp                                   .build/obj_sofle_rev1_EGF2/quantum/action_layer.o (symbol from plugin)
                                                  .build/obj_sofle_rev1_EGF2/quantum/keymap_introspection.o (symbol from plugin)
layer_state_is                                    .build/obj_sofle_rev1_EGF2/quantum/action_layer.o (symbol from plugin)
                                                  .build/obj_sofle_rev1_EGF2/quantum/keymap_introspection.o (symbol from plugin)
layer_state_set                                   .build/obj_sofle_rev1_EGF2/quantum/action_layer.o (symbol from plugin)
                                                  .build/obj_sofle_rev1_EGF2/quantum/action.o (symbol from plugin)
                                                  .build/obj_sofle_rev1_EGF2/quantum/quantum.o (symbol from plugin)
layer_state_set_kb                                .build/obj_sofle_rev1_EGF2/quantum/action_layer.o (symbol from plugin)
                                                  .build/obj_sofle_rev1_EGF2/quantum/bootmagic/magic.o (symbol from plugin)
layer_state_set_user                              .build/obj_sofle_rev1_EGF2/quantum/keymap_introspection.o (symbol from plugin)
layer_state_str                                   .build/obj_sofle_rev1_EGF2/quantum/keymap_introspection.o (symbol from plugin)
layer_switch_get_action                           .build/obj_sofle_rev1_EGF2/quantum/action_layer.o (symbol from plugin)
                                                  .build/obj_sofle_rev1_EGF2/quantum/action_tapping.o (symbol from plugin)
                                                  .build/obj_sofle_rev1_EGF2/quantum/action.o (symbol from plugin)
layer_switch_get_layer                            .build/obj_sofle_rev1_EGF2/quantum/action_layer.o (symbol from plugin)
                                                  .build/obj_sofle_rev1_EGF2/quantum/quantum.o (symbol from plugin)
layer_vou_lights                                  .build/obj_sofle_rev1_EGF2/quantum/keymap_introspection.o (symbol from plugin)
layer_xor                                         .build/obj_sofle_rev1_EGF2/quantum/action_layer.o (symbol from plugin)
                                                  .build/obj_sofle_rev1_EGF2/quantum/action.o (symbol from plugin)
led                                               .build/obj_sofle_rev1_EGF2/quantum/rgblight/rgblight.o (symbol from plugin)
led.c.c9df1f01                                    /tmp/cc4Fj2P6debugobj
                                                  /tmp/ccxW9Zd7.ltrans0.ltrans.o
led_init_ports                                    .build/obj_sofle_rev1_EGF2/quantum/led.o (symbol from plugin)
                                                  .build/obj_sofle_rev1_EGF2/quantum/keyboard.o (symbol from plugin)
led_set                                           .build/obj_sofle_rev1_EGF2/quantum/led.o (symbol from plugin)
                                                  .build/obj_sofle_rev1_EGF2/quantum/action.o (symbol from plugin)
led_set_kb                                        .build/obj_sofle_rev1_EGF2/quantum/led.o (symbol from plugin)
led_set_user                                      .build/obj_sofle_rev1_EGF2/quantum/led.o (symbol from plugin)
led_suspend                                       .build/obj_sofle_rev1_EGF2/quantum/led.o (symbol from plugin)
                                                  .build/obj_sofle_rev1_EGF2/quantum/quantum.o (symbol from plugin)
led_tables.c.6192a30a                             /tmp/cc4Fj2P6debugobj
                                                  /tmp/ccxW9Zd7.ltrans0.ltrans.o
led_task                                          .build/obj_sofle_rev1_EGF2/quantum/led.o (symbol from plugin)
                                                  .build/obj_sofle_rev1_EGF2/quantum/keyboard.o (symbol from plugin)
led_update_kb                                     .build/obj_sofle_rev1_EGF2/quantum/led.o (symbol from plugin)
led_update_ports                                  .build/obj_sofle_rev1_EGF2/quantum/led.o (symbol from plugin)
led_update_user                                   .build/obj_sofle_rev1_EGF2/quantum/led.o (symbol from plugin)
led_wakeup                                        .build/obj_sofle_rev1_EGF2/quantum/led.o (symbol from plugin)
                                                  .build/obj_sofle_rev1_EGF2/quantum/quantum.o (symbol from plugin)
magic                                             .build/obj_sofle_rev1_EGF2/quantum/bootmagic/magic.o (symbol from plugin)
                                                  .build/obj_sofle_rev1_EGF2/quantum/keyboard.o (symbol from plugin)
magic.c.9de7d271                                  /tmp/cc4Fj2P6debugobj
                                                  /tmp/ccxW9Zd7.ltrans0.ltrans.o
magic_token                                       .build/obj_sofle_rev1_EGF2/platforms/chibios/bootloaders/rp2040.o (symbol from plugin)
main                                              /tmp/ccxW9Zd7.ltrans0.ltrans.o
                                                  .build/obj_sofle_rev1_EGF2/quantum/main.o (symbol from plugin)
                                                  .build/obj_sofle_rev1_EGF2/./lib/chibios/os/common/startup/ARMCMx/compilers/GCC/crt0_v6m.o
main.c.a792bd8c                                   /tmp/cc4Fj2P6debugobj
                                                  /tmp/ccxW9Zd7.ltrans0.ltrans.o
malloc                                            /usr/lib/gcc/arm-none-eabi/8.3.1/../../../arm-none-eabi/lib/thumb/v6-m/nofp/libg_nano.a(lib_a-malloc.o)
                                                  /usr/lib/gcc/arm-none-eabi/8.3.1/../../../arm-none-eabi/lib/thumb/v6-m/nofp/libg_nano.a(lib_a-rand.o)
matrix                                            .build/obj_sofle_rev1_EGF2/quantum/matrix_common.o (symbol from plugin)
                                                  .build/obj_sofle_rev1_EGF2/quantum/matrix.o (symbol from plugin)
matrix.c.27022d39                                 /tmp/cc4Fj2P6debugobj
                                                  /tmp/ccxW9Zd7.ltrans0.ltrans.o
matrix_cols                                       .build/obj_sofle_rev1_EGF2/quantum/matrix_common.o (symbol from plugin)
matrix_common.c.2f7c72f1                          /tmp/cc4Fj2P6debugobj
                                                  /tmp/ccxW9Zd7.ltrans0.ltrans.o
matrix_get_row                                    .build/obj_sofle_rev1_EGF2/quantum/matrix_common.o (symbol from plugin)
                                                  .build/obj_sofle_rev1_EGF2/platforms/suspend.o (symbol from plugin)
                                                  .build/obj_sofle_rev1_EGF2/quantum/keyboard.o (symbol from plugin)
matrix_init                                       .build/obj_sofle_rev1_EGF2/quantum/matrix.o (symbol from plugin)
                                                  .build/obj_sofle_rev1_EGF2/quantum/matrix_common.o (symbol from plugin)
                                                  .build/obj_sofle_rev1_EGF2/quantum/keyboard.o (symbol from plugin)
matrix_init_custom                                .build/obj_sofle_rev1_EGF2/quantum/matrix_common.o (symbol from plugin)
matrix_init_kb                                    .build/obj_sofle_rev1_EGF2/quantum/matrix_common.o (symbol from plugin)
                                                  .build/obj_sofle_rev1_EGF2/quantum/quantum.o (symbol from plugin)
matrix_init_pins                                  .build/obj_sofle_rev1_EGF2/quantum/matrix.o (symbol from plugin)
matrix_init_quantum                               .build/obj_sofle_rev1_EGF2/quantum/quantum.o (symbol from plugin)
                                                  .build/obj_sofle_rev1_EGF2/quantum/matrix.o (symbol from plugin)
                                                  .build/obj_sofle_rev1_EGF2/quantum/matrix_common.o (symbol from plugin)
matrix_init_user                                  .build/obj_sofle_rev1_EGF2/quantum/matrix_common.o (symbol from plugin)
matrix_io_delay                                   .build/obj_sofle_rev1_EGF2/quantum/matrix_common.o (symbol from plugin)
matrix_is_on                                      .build/obj_sofle_rev1_EGF2/quantum/matrix_common.o (symbol from plugin)
matrix_output_select_delay                        .build/obj_sofle_rev1_EGF2/quantum/matrix_common.o (symbol from plugin)
                                                  .build/obj_sofle_rev1_EGF2/quantum/matrix.o (symbol from plugin)
matrix_output_unselect_delay                      .build/obj_sofle_rev1_EGF2/quantum/matrix_common.o (symbol from plugin)
                                                  .build/obj_sofle_rev1_EGF2/quantum/matrix.o (symbol from plugin)
matrix_post_scan                                  .build/obj_sofle_rev1_EGF2/quantum/matrix_common.o (symbol from plugin)
                                                  .build/obj_sofle_rev1_EGF2/quantum/matrix.o (symbol from plugin)
matrix_power_down                                 .build/obj_sofle_rev1_EGF2/platforms/suspend.o (symbol from plugin)
matrix_power_up                                   .build/obj_sofle_rev1_EGF2/platforms/suspend.o (symbol from plugin)
matrix_print                                      .build/obj_sofle_rev1_EGF2/quantum/matrix_common.o (symbol from plugin)
                                                  .build/obj_sofle_rev1_EGF2/quantum/keyboard.o (symbol from plugin)
matrix_read_cols_on_row                           .build/obj_sofle_rev1_EGF2/quantum/matrix.o (symbol from plugin)
matrix_rows                                       .build/obj_sofle_rev1_EGF2/quantum/matrix_common.o (symbol from plugin)
matrix_scan                                       .build/obj_sofle_rev1_EGF2/quantum/matrix.o (symbol from plugin)
                                                  .build/obj_sofle_rev1_EGF2/quantum/matrix_common.o (symbol from plugin)
                                                  .build/obj_sofle_rev1_EGF2/platforms/suspend.o (symbol from plugin)
                                                  .build/obj_sofle_rev1_EGF2/quantum/keyboard.o (symbol from plugin)
matrix_scan_custom                                .build/obj_sofle_rev1_EGF2/quantum/matrix_common.o (symbol from plugin)
matrix_scan_kb                                    .build/obj_sofle_rev1_EGF2/quantum/matrix_common.o (symbol from plugin)
                                                  .build/obj_sofle_rev1_EGF2/quantum/quantum.o (symbol from plugin)
matrix_scan_quantum                               .build/obj_sofle_rev1_EGF2/quantum/quantum.o (symbol from plugin)
                                                  .build/obj_sofle_rev1_EGF2/quantum/matrix_common.o (symbol from plugin)
matrix_scan_user                                  .build/obj_sofle_rev1_EGF2/quantum/matrix_common.o (symbol from plugin)
matrix_setup                                      .build/obj_sofle_rev1_EGF2/quantum/keyboard.o (symbol from plugin)
matrix_slave_scan_kb                              .build/obj_sofle_rev1_EGF2/quantum/matrix_common.o (symbol from plugin)
matrix_slave_scan_user                            .build/obj_sofle_rev1_EGF2/quantum/matrix_common.o (symbol from plugin)
mcu_reset                                         .build/obj_sofle_rev1_EGF2/platforms/chibios/bootloaders/rp2040.o (symbol from plugin)
                                                  .build/obj_sofle_rev1_EGF2/quantum/quantum.o (symbol from plugin)
memchr                                            /usr/lib/gcc/arm-none-eabi/8.3.1/../../../arm-none-eabi/lib/thumb/v6-m/nofp/libg_nano.a(lib_a-memchr-stub.o)
                                                  /tmp/ccxW9Zd7.ltrans0.ltrans.o
                                                  /usr/lib/gcc/arm-none-eabi/8.3.1/../../../arm-none-eabi/lib/thumb/v6-m/nofp/libg_nano.a(lib_a-fvwrite.o)
                                                  /usr/lib/gcc/arm-none-eabi/8.3.1/../../../arm-none-eabi/lib/thumb/v6-m/nofp/libg_nano.a(lib_a-nano-vfprintf_i.o)
                                                  /usr/lib/gcc/arm-none-eabi/8.3.1/../../../arm-none-eabi/lib/thumb/v6-m/nofp/libg_nano.a(lib_a-nano-vfprintf.o)
memcmp                                            /usr/lib/gcc/arm-none-eabi/8.3.1/../../../arm-none-eabi/lib/thumb/v6-m/nofp/libg_nano.a(lib_a-memcmp.o)
                                                  /tmp/ccxW9Zd7.ltrans0.ltrans.o
memcpy                                            /usr/lib/gcc/arm-none-eabi/8.3.1/../../../arm-none-eabi/lib/thumb/v6-m/nofp/libg_nano.a(lib_a-memcpy-stub.o)
                                                  /tmp/ccxW9Zd7.ltrans0.ltrans.o
                                                  /usr/lib/gcc/arm-none-eabi/8.3.1/../../../arm-none-eabi/lib/thumb/v6-m/nofp/libg_nano.a(lib_a-nano-reallocr.o)
                                                  /usr/lib/gcc/arm-none-eabi/8.3.1/../../../arm-none-eabi/lib/thumb/v6-m/nofp/libg_nano.a(lib_a-fvwrite.o)
                                                  .build/obj_sofle_rev1_EGF2/serial_vendor.a(serial_vendor.o)
memmove                                           /usr/lib/gcc/arm-none-eabi/8.3.1/../../../arm-none-eabi/lib/thumb/v6-m/nofp/libg_nano.a(lib_a-memmove.o)
                                                  /usr/lib/gcc/arm-none-eabi/8.3.1/../../../arm-none-eabi/lib/thumb/v6-m/nofp/libg_nano.a(lib_a-fvwrite.o)
memset                                            /usr/lib/gcc/arm-none-eabi/8.3.1/../../../arm-none-eabi/lib/thumb/v6-m/nofp/libg_nano.a(lib_a-memset.o)
                                                  /tmp/ccxW9Zd7.ltrans0.ltrans.o
                                                  /usr/lib/gcc/arm-none-eabi/8.3.1/../../../arm-none-eabi/lib/thumb/v6-m/nofp/libg_nano.a(lib_a-findfp.o)
memstreams.c.12da87a0                             /tmp/cc4Fj2P6debugobj
mk_delay                                          .build/obj_sofle_rev1_EGF2/quantum/mousekey.o (symbol from plugin)
mk_interval                                       .build/obj_sofle_rev1_EGF2/quantum/mousekey.o (symbol from plugin)
mk_max_speed                                      .build/obj_sofle_rev1_EGF2/quantum/mousekey.o (symbol from plugin)
mk_time_to_max                                    .build/obj_sofle_rev1_EGF2/quantum/mousekey.o (symbol from plugin)
mk_wheel_delay                                    .build/obj_sofle_rev1_EGF2/quantum/mousekey.o (symbol from plugin)
mk_wheel_interval                                 .build/obj_sofle_rev1_EGF2/quantum/mousekey.o (symbol from plugin)
mk_wheel_max_speed                                .build/obj_sofle_rev1_EGF2/quantum/mousekey.o (symbol from plugin)
mk_wheel_time_to_max                              .build/obj_sofle_rev1_EGF2/quantum/mousekey.o (symbol from plugin)
mod_config                                        .build/obj_sofle_rev1_EGF2/quantum/keycode_config.o (symbol from plugin)
                                                  .build/obj_sofle_rev1_EGF2/quantum/keymap_common.o (symbol from plugin)
mouse_report_blank                                .build/obj_sofle_rev1_EGF2/protocol/chibios/usb_main.o (symbol from plugin)
mousekey.c.a52bafee                               /tmp/cc4Fj2P6debugobj
                                                  /tmp/ccxW9Zd7.ltrans0.ltrans.o
mousekey_clear                                    .build/obj_sofle_rev1_EGF2/quantum/mousekey.o (symbol from plugin)
                                                  .build/obj_sofle_rev1_EGF2/platforms/chibios/suspend.o (symbol from plugin)
                                                  .build/obj_sofle_rev1_EGF2/quantum/action.o (symbol from plugin)
mousekey_get_report                               .build/obj_sofle_rev1_EGF2/quantum/mousekey.o (symbol from plugin)
mousekey_off                                      .build/obj_sofle_rev1_EGF2/quantum/mousekey.o (symbol from plugin)
                                                  .build/obj_sofle_rev1_EGF2/quantum/action.o (symbol from plugin)
mousekey_on                                       .build/obj_sofle_rev1_EGF2/quantum/mousekey.o (symbol from plugin)
                                                  .build/obj_sofle_rev1_EGF2/quantum/action.o (symbol from plugin)
mousekey_send                                     .build/obj_sofle_rev1_EGF2/quantum/mousekey.o (symbol from plugin)
                                                  .build/obj_sofle_rev1_EGF2/protocol/chibios/chibios.o (symbol from plugin)
                                                  .build/obj_sofle_rev1_EGF2/quantum/action.o (symbol from plugin)
mousekey_task                                     .build/obj_sofle_rev1_EGF2/quantum/mousekey.o (symbol from plugin)
                                                  .build/obj_sofle_rev1_EGF2/quantum/keyboard.o (symbol from plugin)
msObjectInit                                      .build/obj_sofle_rev1/lib/chibios/os/hal/lib/streams/memstreams.o (symbol from plugin)
                                                  .build/obj_sofle_rev1/lib/chibios/os/hal/lib/streams/chscanf.o (symbol from plugin)
                                                  .build/obj_sofle_rev1/lib/chibios/os/hal/lib/streams/chprintf.o (symbol from plugin)
my_rgb_layers                                     .build/obj_sofle_rev1_EGF2/quantum/keymap_introspection.o (symbol from plugin)
notify_usb_device_state_change_kb                 .build/obj_sofle_rev1_EGF2/protocol/usb_device_state.o (symbol from plugin)
notify_usb_device_state_change_user               .build/obj_sofle_rev1_EGF2/protocol/usb_device_state.o (symbol from plugin)
nullObjectInit                                    .build/obj_sofle_rev1/lib/chibios/os/hal/lib/streams/nullstreams.o (symbol from plugin)
nullstreams.c.06b2e433                            /tmp/cc4Fj2P6debugobj
nvic.c.b8d99d49                                   /tmp/cc4Fj2P6debugobj
                                                  /tmp/ccxW9Zd7.ltrans0.ltrans.o
nvicClearPending                                  .build/obj_sofle_rev1/lib/chibios/os/hal/ports/common/ARMCMx/nvic.o (symbol from plugin)
nvicDisableVector                                 .build/obj_sofle_rev1/lib/chibios/os/hal/ports/common/ARMCMx/nvic.o (symbol from plugin)
                                                  .build/obj_sofle_rev1/lib/chibios-contrib/os/hal/ports/RP/LLD/USBDv1/hal_usb_lld.o (symbol from plugin)
                                                  .build/obj_sofle_rev1/lib/chibios-contrib/os/hal/ports/RP/LLD/I2Cv1/hal_i2c_lld.o (symbol from plugin)
                                                  .build/obj_sofle_rev1/lib/chibios/os/hal/ports/RP/LLD/DMAv1/rp_dma.o (symbol from plugin)
nvicEnableVector                                  /tmp/ccxW9Zd7.ltrans0.ltrans.o
                                                  .build/obj_sofle_rev1/lib/chibios/os/hal/ports/common/ARMCMx/nvic.o (symbol from plugin)
                                                  .build/obj_sofle_rev1/lib/chibios-contrib/os/hal/ports/RP/LLD/USBDv1/hal_usb_lld.o (symbol from plugin)
                                                  .build/obj_sofle_rev1/lib/chibios-contrib/os/hal/ports/RP/LLD/I2Cv1/hal_i2c_lld.o (symbol from plugin)
                                                  .build/obj_sofle_rev1/lib/chibios/os/hal/ports/RP/LLD/TIMERv1/hal_st_lld.o (symbol from plugin)
                                                  .build/obj_sofle_rev1/lib/chibios/os/hal/ports/RP/LLD/DMAv1/rp_dma.o (symbol from plugin)
                                                  .build/obj_sofle_rev1_EGF2/serial_vendor.a(serial_vendor.o)
nvicInit                                          .build/obj_sofle_rev1/lib/chibios/os/hal/ports/common/ARMCMx/nvic.o (symbol from plugin)
nvicSetPending                                    .build/obj_sofle_rev1/lib/chibios/os/hal/ports/common/ARMCMx/nvic.o (symbol from plugin)
nvicSetSystemHandlerPriority                      .build/obj_sofle_rev1/lib/chibios/os/hal/ports/common/ARMCMx/nvic.o (symbol from plugin)
obqFlush                                          .build/obj_sofle_rev1/lib/chibios/os/hal/src/hal_buffers.o (symbol from plugin)
obqGetEmptyBufferTimeout                          .build/obj_sofle_rev1/lib/chibios/os/hal/src/hal_buffers.o (symbol from plugin)
obqGetEmptyBufferTimeoutS                         .build/obj_sofle_rev1/lib/chibios/os/hal/src/hal_buffers.o (symbol from plugin)
obqGetFullBufferI                                 .build/obj_sofle_rev1/lib/chibios/os/hal/src/hal_buffers.o (symbol from plugin)
                                                  .build/obj_sofle_rev1_EGF2/protocol/chibios/usb_driver.o (symbol from plugin)
obqObjectInit                                     .build/obj_sofle_rev1/lib/chibios/os/hal/src/hal_buffers.o (symbol from plugin)
                                                  .build/obj_sofle_rev1_EGF2/protocol/chibios/usb_driver.o (symbol from plugin)
obqPostFullBuffer                                 .build/obj_sofle_rev1/lib/chibios/os/hal/src/hal_buffers.o (symbol from plugin)
obqPostFullBufferS                                .build/obj_sofle_rev1/lib/chibios/os/hal/src/hal_buffers.o (symbol from plugin)
obqPutTimeout                                     .build/obj_sofle_rev1/lib/chibios/os/hal/src/hal_buffers.o (symbol from plugin)
                                                  .build/obj_sofle_rev1_EGF2/protocol/chibios/usb_driver.o (symbol from plugin)
obqReleaseEmptyBufferI                            .build/obj_sofle_rev1/lib/chibios/os/hal/src/hal_buffers.o (symbol from plugin)
                                                  .build/obj_sofle_rev1_EGF2/protocol/chibios/usb_driver.o (symbol from plugin)
obqResetI                                         .build/obj_sofle_rev1/lib/chibios/os/hal/src/hal_buffers.o (symbol from plugin)
                                                  .build/obj_sofle_rev1_EGF2/protocol/chibios/usb_driver.o (symbol from plugin)
obqTryFlushI                                      .build/obj_sofle_rev1/lib/chibios/os/hal/src/hal_buffers.o (symbol from plugin)
                                                  .build/obj_sofle_rev1_EGF2/protocol/chibios/usb_driver.o (symbol from plugin)
obqWriteTimeout                                   .build/obj_sofle_rev1/lib/chibios/os/hal/src/hal_buffers.o (symbol from plugin)
                                                  .build/obj_sofle_rev1_EGF2/protocol/chibios/usb_driver.o (symbol from plugin)
oled_active                                       .build/obj_sofle_rev1_EGF2/ssd1306_sh1106.o (symbol from plugin)
oled_advance_char                                 .build/obj_sofle_rev1_EGF2/ssd1306_sh1106.o (symbol from plugin)
oled_advance_page                                 .build/obj_sofle_rev1_EGF2/ssd1306_sh1106.o (symbol from plugin)
oled_brightness                                   .build/obj_sofle_rev1_EGF2/ssd1306_sh1106.o (symbol from plugin)
oled_buffer                                       .build/obj_sofle_rev1_EGF2/ssd1306_sh1106.o (symbol from plugin)
oled_clear                                        .build/obj_sofle_rev1_EGF2/ssd1306_sh1106.o (symbol from plugin)
oled_cursor                                       .build/obj_sofle_rev1_EGF2/ssd1306_sh1106.o (symbol from plugin)
oled_dirty                                        .build/obj_sofle_rev1_EGF2/ssd1306_sh1106.o (symbol from plugin)
oled_get_brightness                               .build/obj_sofle_rev1_EGF2/ssd1306_sh1106.o (symbol from plugin)
oled_init                                         .build/obj_sofle_rev1_EGF2/ssd1306_sh1106.o (symbol from plugin)
                                                  .build/obj_sofle_rev1_EGF2/quantum/keyboard.o (symbol from plugin)
oled_init_kb                                      .build/obj_sofle_rev1_EGF2/ssd1306_sh1106.o (symbol from plugin)
oled_init_user                                    .build/obj_sofle_rev1_EGF2/quantum/keymap_introspection.o (symbol from plugin)
oled_initialized                                  .build/obj_sofle_rev1_EGF2/ssd1306_sh1106.o (symbol from plugin)
oled_invert                                       .build/obj_sofle_rev1_EGF2/ssd1306_sh1106.o (symbol from plugin)
oled_inverted                                     .build/obj_sofle_rev1_EGF2/ssd1306_sh1106.o (symbol from plugin)
oled_max_chars                                    .build/obj_sofle_rev1_EGF2/ssd1306_sh1106.o (symbol from plugin)
oled_max_lines                                    .build/obj_sofle_rev1_EGF2/ssd1306_sh1106.o (symbol from plugin)
oled_off                                          .build/obj_sofle_rev1_EGF2/ssd1306_sh1106.o (symbol from plugin)
                                                  .build/obj_sofle_rev1_EGF2/quantum/quantum.o (symbol from plugin)
oled_on                                           .build/obj_sofle_rev1_EGF2/ssd1306_sh1106.o (symbol from plugin)
                                                  .build/obj_sofle_rev1_EGF2/quantum/keyboard.o (symbol from plugin)
oled_pan                                          .build/obj_sofle_rev1_EGF2/ssd1306_sh1106.o (symbol from plugin)
oled_read_raw                                     .build/obj_sofle_rev1_EGF2/ssd1306_sh1106.o (symbol from plugin)
oled_render                                       .build/obj_sofle_rev1_EGF2/ssd1306_sh1106.o (symbol from plugin)
oled_rotation                                     .build/obj_sofle_rev1_EGF2/ssd1306_sh1106.o (symbol from plugin)
oled_rotation_width                               .build/obj_sofle_rev1_EGF2/ssd1306_sh1106.o (symbol from plugin)
oled_scroll_end                                   .build/obj_sofle_rev1_EGF2/ssd1306_sh1106.o (symbol from plugin)
oled_scroll_left                                  .build/obj_sofle_rev1_EGF2/ssd1306_sh1106.o (symbol from plugin)
oled_scroll_off                                   .build/obj_sofle_rev1_EGF2/ssd1306_sh1106.o (symbol from plugin)
oled_scroll_right                                 .build/obj_sofle_rev1_EGF2/ssd1306_sh1106.o (symbol from plugin)
oled_scroll_set_area                              .build/obj_sofle_rev1_EGF2/ssd1306_sh1106.o (symbol from plugin)
oled_scroll_set_speed                             .build/obj_sofle_rev1_EGF2/ssd1306_sh1106.o (symbol from plugin)
oled_scroll_speed                                 .build/obj_sofle_rev1_EGF2/ssd1306_sh1106.o (symbol from plugin)
oled_scroll_start                                 .build/obj_sofle_rev1_EGF2/ssd1306_sh1106.o (symbol from plugin)
oled_scrolling                                    .build/obj_sofle_rev1_EGF2/ssd1306_sh1106.o (symbol from plugin)
oled_set_brightness                               .build/obj_sofle_rev1_EGF2/ssd1306_sh1106.o (symbol from plugin)
oled_set_cursor                                   .build/obj_sofle_rev1_EGF2/ssd1306_sh1106.o (symbol from plugin)
oled_task                                         .build/obj_sofle_rev1_EGF2/ssd1306_sh1106.o (symbol from plugin)
                                                  .build/obj_sofle_rev1_EGF2/quantum/keyboard.o (symbol from plugin)
oled_task_kb                                      .build/obj_sofle_rev1_EGF2/ssd1306_sh1106.o (symbol from plugin)
oled_task_user                                    .build/obj_sofle_rev1_EGF2/quantum/keymap_introspection.o (symbol from plugin)
oled_timeout                                      .build/obj_sofle_rev1_EGF2/ssd1306_sh1106.o (symbol from plugin)
oled_update_timeout                               .build/obj_sofle_rev1_EGF2/ssd1306_sh1106.o (symbol from plugin)
oled_write                                        .build/obj_sofle_rev1_EGF2/ssd1306_sh1106.o (symbol from plugin)
                                                  .build/obj_sofle_rev1_EGF2/quantum/keymap_introspection.o (symbol from plugin)
oled_write_char                                   .build/obj_sofle_rev1_EGF2/ssd1306_sh1106.o (symbol from plugin)
oled_write_ln                                     .build/obj_sofle_rev1_EGF2/ssd1306_sh1106.o (symbol from plugin)
                                                  .build/obj_sofle_rev1_EGF2/quantum/keymap_introspection.o (symbol from plugin)
oled_write_pixel                                  .build/obj_sofle_rev1_EGF2/ssd1306_sh1106.o (symbol from plugin)
oled_write_raw                                    .build/obj_sofle_rev1_EGF2/ssd1306_sh1106.o (symbol from plugin)
oled_write_raw_byte                               .build/obj_sofle_rev1_EGF2/ssd1306_sh1106.o (symbol from plugin)
oneshot_disable                                   .build/obj_sofle_rev1_EGF2/quantum/action_util.o (symbol from plugin)
                                                  .build/obj_sofle_rev1_EGF2/quantum/quantum.o (symbol from plugin)
oneshot_enable                                    .build/obj_sofle_rev1_EGF2/quantum/action_util.o (symbol from plugin)
                                                  .build/obj_sofle_rev1_EGF2/quantum/quantum.o (symbol from plugin)
oneshot_layer_changed_kb                          .build/obj_sofle_rev1_EGF2/quantum/action_util.o (symbol from plugin)
oneshot_layer_changed_user                        .build/obj_sofle_rev1_EGF2/quantum/action_util.o (symbol from plugin)
oneshot_locked_mods_changed_kb                    .build/obj_sofle_rev1_EGF2/quantum/action_util.o (symbol from plugin)
oneshot_locked_mods_changed_user                  .build/obj_sofle_rev1_EGF2/quantum/action_util.o (symbol from plugin)
oneshot_mods_changed_kb                           .build/obj_sofle_rev1_EGF2/quantum/action_util.o (symbol from plugin)
oneshot_mods_changed_user                         .build/obj_sofle_rev1_EGF2/quantum/action_util.o (symbol from plugin)
oneshot_set                                       .build/obj_sofle_rev1_EGF2/quantum/action_util.o (symbol from plugin)
oneshot_toggle                                    .build/obj_sofle_rev1_EGF2/quantum/action_util.o (symbol from plugin)
                                                  .build/obj_sofle_rev1_EGF2/quantum/quantum.o (symbol from plugin)
oqGetI                                            .build/obj_sofle_rev1/lib/chibios/os/hal/src/hal_queues.o (symbol from plugin)
oqObjectInit                                      .build/obj_sofle_rev1/lib/chibios/os/hal/src/hal_queues.o (symbol from plugin)
oqPutI                                            .build/obj_sofle_rev1/lib/chibios/os/hal/src/hal_queues.o (symbol from plugin)
oqPutTimeout                                      .build/obj_sofle_rev1/lib/chibios/os/hal/src/hal_queues.o (symbol from plugin)
oqResetI                                          .build/obj_sofle_rev1/lib/chibios/os/hal/src/hal_queues.o (symbol from plugin)
oqWriteI                                          .build/obj_sofle_rev1/lib/chibios/os/hal/src/hal_queues.o (symbol from plugin)
oqWriteTimeout                                    .build/obj_sofle_rev1/lib/chibios/os/hal/src/hal_queues.o (symbol from plugin)
osal.c.29975a63                                   /tmp/cc4Fj2P6debugobj
palReadBus                                        .build/obj_sofle_rev1/lib/chibios/os/hal/src/hal_pal.o (symbol from plugin)
palSetBusMode                                     .build/obj_sofle_rev1/lib/chibios/os/hal/src/hal_pal.o (symbol from plugin)
palWriteBus                                       .build/obj_sofle_rev1/lib/chibios/os/hal/src/hal_pal.o (symbol from plugin)
panic                                             .build/obj_sofle_rev1/platforms/chibios/vendors/RP/pico_sdk_shims.o (symbol from plugin)
                                                  .build/obj_sofle_rev1/./lib/pico-sdk/src/rp2_common/hardware_claim/claim.o (symbol from plugin)
                                                  .build/obj_sofle_rev1/./lib/pico-sdk/src/rp2_common/hardware_pio/pio.o (symbol from plugin)
peek_matrix                                       .build/obj_sofle_rev1_EGF2/quantum/matrix_common.o (symbol from plugin)
perform_space_cadet                               .build/obj_sofle_rev1_EGF2/quantum/process_keycode/process_space_cadet.o (symbol from plugin)
pico_sdk_shims.c.9bdbc80b                         /tmp/cc4Fj2P6debugobj
                                                  /tmp/ccxW9Zd7.ltrans0.ltrans.o
pio.c.e0653abf                                    /tmp/cc4Fj2P6debugobj
                                                  /tmp/ccxW9Zd7.ltrans0.ltrans.o
pio_add_program                                   /tmp/ccxW9Zd7.ltrans0.ltrans.o
                                                  .build/obj_sofle_rev1/./lib/pico-sdk/src/rp2_common/hardware_pio/pio.o (symbol from plugin)
                                                  .build/obj_sofle_rev1_EGF2/serial_vendor.a(serial_vendor.o)
                                                  .build/obj_sofle_rev1_EGF2/ws2812_vendor.o (symbol from plugin)
pio_add_program_at_offset                         .build/obj_sofle_rev1/./lib/pico-sdk/src/rp2_common/hardware_pio/pio.o (symbol from plugin)
pio_can_add_program                               .build/obj_sofle_rev1/./lib/pico-sdk/src/rp2_common/hardware_pio/pio.o (symbol from plugin)
pio_can_add_program_at_offset                     .build/obj_sofle_rev1/./lib/pico-sdk/src/rp2_common/hardware_pio/pio.o (symbol from plugin)
pio_claim_sm_mask                                 .build/obj_sofle_rev1/./lib/pico-sdk/src/rp2_common/hardware_pio/pio.o (symbol from plugin)
pio_claim_unused_sm                               /tmp/ccxW9Zd7.ltrans0.ltrans.o
                                                  .build/obj_sofle_rev1/./lib/pico-sdk/src/rp2_common/hardware_pio/pio.o (symbol from plugin)
                                                  .build/obj_sofle_rev1_EGF2/serial_vendor.a(serial_vendor.o)
                                                  .build/obj_sofle_rev1_EGF2/ws2812_vendor.o (symbol from plugin)
pio_clear_instruction_memory                      .build/obj_sofle_rev1/./lib/pico-sdk/src/rp2_common/hardware_pio/pio.o (symbol from plugin)
pio_remove_program                                .build/obj_sofle_rev1/./lib/pico-sdk/src/rp2_common/hardware_pio/pio.o (symbol from plugin)
pio_sm_claim                                      .build/obj_sofle_rev1/./lib/pico-sdk/src/rp2_common/hardware_pio/pio.o (symbol from plugin)
pio_sm_drain_tx_fifo                              .build/obj_sofle_rev1/./lib/pico-sdk/src/rp2_common/hardware_pio/pio.o (symbol from plugin)
pio_sm_init                                       /tmp/ccxW9Zd7.ltrans0.ltrans.o
                                                  .build/obj_sofle_rev1/./lib/pico-sdk/src/rp2_common/hardware_pio/pio.o (symbol from plugin)
                                                  .build/obj_sofle_rev1_EGF2/serial_vendor.a(serial_vendor.o)
                                                  .build/obj_sofle_rev1_EGF2/ws2812_vendor.o (symbol from plugin)
pio_sm_is_claimed                                 .build/obj_sofle_rev1/./lib/pico-sdk/src/rp2_common/hardware_pio/pio.o (symbol from plugin)
pio_sm_set_consecutive_pindirs                    /tmp/ccxW9Zd7.ltrans0.ltrans.o
                                                  .build/obj_sofle_rev1/./lib/pico-sdk/src/rp2_common/hardware_pio/pio.o (symbol from plugin)
                                                  .build/obj_sofle_rev1_EGF2/serial_vendor.a(serial_vendor.o)
                                                  .build/obj_sofle_rev1_EGF2/ws2812_vendor.o (symbol from plugin)
pio_sm_set_pindirs_with_mask                      .build/obj_sofle_rev1/./lib/pico-sdk/src/rp2_common/hardware_pio/pio.o (symbol from plugin)
pio_sm_set_pins                                   .build/obj_sofle_rev1/./lib/pico-sdk/src/rp2_common/hardware_pio/pio.o (symbol from plugin)
pio_sm_set_pins_with_mask                         /tmp/ccxW9Zd7.ltrans0.ltrans.o
                                                  .build/obj_sofle_rev1/./lib/pico-sdk/src/rp2_common/hardware_pio/pio.o (symbol from plugin)
                                                  .build/obj_sofle_rev1_EGF2/serial_vendor.a(serial_vendor.o)
pio_sm_unclaim                                    .build/obj_sofle_rev1/./lib/pico-sdk/src/rp2_common/hardware_pio/pio.o (symbol from plugin)
platform.c.1ad338b9                               /tmp/cc4Fj2P6debugobj
                                                  /tmp/ccxW9Zd7.ltrans0.ltrans.o
platform_setup                                    .build/obj_sofle_rev1_EGF2/platforms/chibios/platform.o (symbol from plugin)
                                                  .build/obj_sofle_rev1_EGF2/quantum/main.o (symbol from plugin)
pll.c.aa366220                                    /tmp/cc4Fj2P6debugobj
                                                  /tmp/ccxW9Zd7.ltrans0.ltrans.o
pll_deinit                                        .build/obj_sofle_rev1/./lib/pico-sdk/src/rp2_common/hardware_pll/pll.o (symbol from plugin)
pll_init                                          .build/obj_sofle_rev1/./lib/pico-sdk/src/rp2_common/hardware_pll/pll.o (symbol from plugin)
                                                  .build/obj_sofle_rev1/./lib/pico-sdk/src/rp2_common/hardware_clocks/clocks.o (symbol from plugin)
port_init                                         .build/obj_sofle_rev1/lib/chibios/os/common/ports/ARMv6-M-RP2/chcore.o (symbol from plugin)
                                                  .build/obj_sofle_rev1/lib/chibios/os/rt/src/chinstances.o (symbol from plugin)
port_local_halt                                   .build/obj_sofle_rev1/lib/chibios/os/common/ports/ARMv6-M-RP2/chcore.o (symbol from plugin)
post_process_record_kb                            .build/obj_sofle_rev1_EGF2/quantum/quantum.o (symbol from plugin)
post_process_record_quantum                       .build/obj_sofle_rev1_EGF2/quantum/quantum.o (symbol from plugin)
post_process_record_user                          .build/obj_sofle_rev1_EGF2/quantum/quantum.o (symbol from plugin)
pre_process_record_quantum                        .build/obj_sofle_rev1_EGF2/quantum/quantum.o (symbol from plugin)
preprocess_tap_dance                              .build/obj_sofle_rev1_EGF2/quantum/process_keycode/process_tap_dance.o (symbol from plugin)
                                                  .build/obj_sofle_rev1_EGF2/quantum/quantum.o (symbol from plugin)
print.c.ba760ce8                                  /tmp/cc4Fj2P6debugobj
                                                  /tmp/ccxW9Zd7.ltrans0.ltrans.o
print_set_sendchar                                .build/obj_sofle_rev1_EGF2/quantum/logging/print.o (symbol from plugin)
                                                  .build/obj_sofle_rev1_EGF2/quantum/keyboard.o (symbol from plugin)
printf                                            .build/obj_sofle_rev1_EGF2/printf.o (symbol from plugin)
printf.c.19719944                                 /tmp/cc4Fj2P6debugobj
                                                  /tmp/ccxW9Zd7.ltrans0.ltrans.o
process_action                                    .build/obj_sofle_rev1_EGF2/quantum/action.o (symbol from plugin)
process_action_kb                                 .build/obj_sofle_rev1_EGF2/quantum/quantum.o (symbol from plugin)
process_grave_esc                                 .build/obj_sofle_rev1_EGF2/quantum/process_keycode/process_grave_esc.o (symbol from plugin)
                                                  .build/obj_sofle_rev1_EGF2/quantum/quantum.o (symbol from plugin)
process_grave_esc.c.8976fcba                      /tmp/cc4Fj2P6debugobj
                                                  /tmp/ccxW9Zd7.ltrans0.ltrans.o
process_hand_swap                                 .build/obj_sofle_rev1_EGF2/quantum/action.o (symbol from plugin)
process_magic                                     .build/obj_sofle_rev1_EGF2/quantum/process_keycode/process_magic.o (symbol from plugin)
                                                  .build/obj_sofle_rev1_EGF2/quantum/quantum.o (symbol from plugin)
process_magic.c.0f4b1a39                          /tmp/cc4Fj2P6debugobj
                                                  /tmp/ccxW9Zd7.ltrans0.ltrans.o
process_record                                    .build/obj_sofle_rev1_EGF2/quantum/action.o (symbol from plugin)
                                                  .build/obj_sofle_rev1_EGF2/quantum/action_tapping.o (symbol from plugin)
process_record_handler                            .build/obj_sofle_rev1_EGF2/quantum/action.o (symbol from plugin)
process_record_kb                                 .build/obj_sofle_rev1_EGF2/quantum/quantum.o (symbol from plugin)
process_record_nocache                            .build/obj_sofle_rev1_EGF2/quantum/action.o (symbol from plugin)
process_record_quantum                            .build/obj_sofle_rev1_EGF2/quantum/quantum.o (symbol from plugin)
process_record_tap_hint                           .build/obj_sofle_rev1_EGF2/quantum/action.o (symbol from plugin)
                                                  .build/obj_sofle_rev1_EGF2/quantum/action_tapping.o (symbol from plugin)
process_record_user                               .build/obj_sofle_rev1_EGF2/quantum/keymap_introspection.o (symbol from plugin)
process_rgb                                       .build/obj_sofle_rev1_EGF2/quantum/process_keycode/process_rgb.o (symbol from plugin)
                                                  .build/obj_sofle_rev1_EGF2/quantum/quantum.o (symbol from plugin)
process_rgb.c.c3d756a7                            /tmp/cc4Fj2P6debugobj
                                                  /tmp/ccxW9Zd7.ltrans0.ltrans.o
process_space_cadet                               .build/obj_sofle_rev1_EGF2/quantum/process_keycode/process_space_cadet.o (symbol from plugin)
                                                  .build/obj_sofle_rev1_EGF2/quantum/quantum.o (symbol from plugin)
process_space_cadet.c.11939182                    /tmp/cc4Fj2P6debugobj
                                                  /tmp/ccxW9Zd7.ltrans0.ltrans.o
process_tap_dance                                 .build/obj_sofle_rev1_EGF2/quantum/process_keycode/process_tap_dance.o (symbol from plugin)
                                                  .build/obj_sofle_rev1_EGF2/quantum/quantum.o (symbol from plugin)
process_tap_dance.c.b5731e5c                      /tmp/cc4Fj2P6debugobj
                                                  /tmp/ccxW9Zd7.ltrans0.ltrans.o
protocol_init                                     .build/obj_sofle_rev1_EGF2/quantum/main.o (symbol from plugin)
protocol_post_init                                .build/obj_sofle_rev1_EGF2/protocol/chibios/chibios.o (symbol from plugin)
                                                  .build/obj_sofle_rev1_EGF2/quantum/main.o (symbol from plugin)
protocol_post_task                                .build/obj_sofle_rev1_EGF2/protocol/chibios/chibios.o (symbol from plugin)
                                                  .build/obj_sofle_rev1_EGF2/quantum/main.o (symbol from plugin)
protocol_pre_init                                 .build/obj_sofle_rev1_EGF2/protocol/chibios/chibios.o (symbol from plugin)
                                                  .build/obj_sofle_rev1_EGF2/quantum/main.o (symbol from plugin)
protocol_pre_task                                 .build/obj_sofle_rev1_EGF2/protocol/chibios/chibios.o (symbol from plugin)
                                                  .build/obj_sofle_rev1_EGF2/quantum/main.o (symbol from plugin)
protocol_setup                                    .build/obj_sofle_rev1_EGF2/protocol/chibios/chibios.o (symbol from plugin)
                                                  .build/obj_sofle_rev1_EGF2/quantum/main.o (symbol from plugin)
protocol_task                                     .build/obj_sofle_rev1_EGF2/quantum/main.o (symbol from plugin)
putchar_                                          .build/obj_sofle_rev1_EGF2/quantum/logging/print.o (symbol from plugin)
                                                  .build/obj_sofle_rev1_EGF2/printf.o (symbol from plugin)
qk_tap_dance_dual_role_finished                   .build/obj_sofle_rev1_EGF2/quantum/process_keycode/process_tap_dance.o (symbol from plugin)
qk_tap_dance_dual_role_on_each_tap                .build/obj_sofle_rev1_EGF2/quantum/process_keycode/process_tap_dance.o (symbol from plugin)
qk_tap_dance_dual_role_reset                      .build/obj_sofle_rev1_EGF2/quantum/process_keycode/process_tap_dance.o (symbol from plugin)
qk_tap_dance_pair_finished                        .build/obj_sofle_rev1_EGF2/quantum/process_keycode/process_tap_dance.o (symbol from plugin)
                                                  .build/obj_sofle_rev1_EGF2/quantum/keymap_introspection.o (symbol from plugin)
qk_tap_dance_pair_on_each_tap                     .build/obj_sofle_rev1_EGF2/quantum/process_keycode/process_tap_dance.o (symbol from plugin)
                                                  .build/obj_sofle_rev1_EGF2/quantum/keymap_introspection.o (symbol from plugin)
qk_tap_dance_pair_reset                           .build/obj_sofle_rev1_EGF2/quantum/process_keycode/process_tap_dance.o (symbol from plugin)
                                                  .build/obj_sofle_rev1_EGF2/quantum/keymap_introspection.o (symbol from plugin)
qmk_fnv_type_validation.c.3caef2c0                /tmp/cc4Fj2P6debugobj
qmkusbConfigureHookI                              .build/obj_sofle_rev1_EGF2/protocol/chibios/usb_driver.o (symbol from plugin)
qmkusbDataReceived                                .build/obj_sofle_rev1_EGF2/protocol/chibios/usb_driver.o (symbol from plugin)
qmkusbDataTransmitted                             .build/obj_sofle_rev1_EGF2/protocol/chibios/usb_driver.o (symbol from plugin)
qmkusbInit                                        .build/obj_sofle_rev1_EGF2/protocol/chibios/usb_driver.o (symbol from plugin)
qmkusbInterruptTransmitted                        .build/obj_sofle_rev1_EGF2/protocol/chibios/usb_driver.o (symbol from plugin)
qmkusbObjectInit                                  .build/obj_sofle_rev1_EGF2/protocol/chibios/usb_driver.o (symbol from plugin)
qmkusbRequestsHook                                .build/obj_sofle_rev1_EGF2/protocol/chibios/usb_driver.o (symbol from plugin)
qmkusbSOFHookI                                    .build/obj_sofle_rev1_EGF2/protocol/chibios/usb_driver.o (symbol from plugin)
qmkusbStart                                       .build/obj_sofle_rev1_EGF2/protocol/chibios/usb_driver.o (symbol from plugin)
qmkusbStop                                        .build/obj_sofle_rev1_EGF2/protocol/chibios/usb_driver.o (symbol from plugin)
qmkusbSuspendHookI                                .build/obj_sofle_rev1_EGF2/protocol/chibios/usb_driver.o (symbol from plugin)
qmkusbWakeupHookI                                 .build/obj_sofle_rev1_EGF2/protocol/chibios/usb_driver.o (symbol from plugin)
quantum.c.628f148c                                /tmp/cc4Fj2P6debugobj
                                                  /tmp/ccxW9Zd7.ltrans0.ltrans.o
quantum_init                                      .build/obj_sofle_rev1_EGF2/quantum/keyboard.o (symbol from plugin)
quantum_task                                      .build/obj_sofle_rev1_EGF2/quantum/keyboard.o (symbol from plugin)
raise                                             /usr/lib/gcc/arm-none-eabi/8.3.1/../../../arm-none-eabi/lib/thumb/v6-m/nofp/libg_nano.a(lib_a-signal.o)
                                                  /usr/lib/gcc/arm-none-eabi/8.3.1/../../../arm-none-eabi/lib/thumb/v6-m/nofp/libg_nano.a(lib_a-abort.o)
rand                                              /usr/lib/gcc/arm-none-eabi/8.3.1/../../../arm-none-eabi/lib/thumb/v6-m/nofp/libg_nano.a(lib_a-rand.o)
                                                  /tmp/ccxW9Zd7.ltrans0.ltrans.o
                                                  .build/obj_sofle_rev1_EGF2/quantum/send_string/send_string.o (symbol from plugin)
                                                  .build/obj_sofle_rev1_EGF2/quantum/rgblight/rgblight.o (symbol from plugin)
raw_matrix                                        .build/obj_sofle_rev1_EGF2/quantum/matrix_common.o (symbol from plugin)
                                                  .build/obj_sofle_rev1_EGF2/quantum/matrix.o (symbol from plugin)
read_source_layers_cache                          .build/obj_sofle_rev1_EGF2/quantum/action_layer.o (symbol from plugin)
                                                  .build/obj_sofle_rev1_EGF2/quantum/quantum.o (symbol from plugin)
read_source_layers_cache_impl                     .build/obj_sofle_rev1_EGF2/quantum/action_layer.o (symbol from plugin)
register_code                                     .build/obj_sofle_rev1_EGF2/quantum/action.o (symbol from plugin)
                                                  .build/obj_sofle_rev1_EGF2/quantum/send_string/send_string.o (symbol from plugin)
                                                  .build/obj_sofle_rev1_EGF2/quantum/quantum.o (symbol from plugin)
register_code16                                   .build/obj_sofle_rev1_EGF2/quantum/quantum.o (symbol from plugin)
                                                  .build/obj_sofle_rev1_EGF2/quantum/process_keycode/process_tap_dance.o (symbol from plugin)
register_mods                                     .build/obj_sofle_rev1_EGF2/quantum/action.o (symbol from plugin)
                                                  .build/obj_sofle_rev1_EGF2/quantum/process_keycode/process_space_cadet.o (symbol from plugin)
                                                  .build/obj_sofle_rev1_EGF2/quantum/quantum.o (symbol from plugin)
register_mouse                                    .build/obj_sofle_rev1_EGF2/quantum/action.o (symbol from plugin)
register_weak_mods                                .build/obj_sofle_rev1_EGF2/quantum/action.o (symbol from plugin)
                                                  .build/obj_sofle_rev1_EGF2/quantum/quantum.o (symbol from plugin)
release_oneshot_swaphands                         .build/obj_sofle_rev1_EGF2/quantum/action_util.o (symbol from plugin)
                                                  .build/obj_sofle_rev1_EGF2/quantum/action.o (symbol from plugin)
report.c.1c190d0c                                 /tmp/cc4Fj2P6debugobj
                                                  /tmp/ccxW9Zd7.ltrans0.ltrans.o
reset_keyboard                                    .build/obj_sofle_rev1_EGF2/quantum/quantum.o (symbol from plugin)
reset_oneshot_layer                               .build/obj_sofle_rev1_EGF2/quantum/action_util.o (symbol from plugin)
reset_tap_dance                                   .build/obj_sofle_rev1_EGF2/quantum/process_keycode/process_tap_dance.o (symbol from plugin)
restart_usb_driver                                .build/obj_sofle_rev1_EGF2/protocol/chibios/usb_main.o (symbol from plugin)
                                                  .build/obj_sofle_rev1_EGF2/protocol/chibios/chibios.o (symbol from plugin)
rev1.c.a5a11332                                   /tmp/cc4Fj2P6debugobj
rgblight.c.81c7d32b                               /tmp/cc4Fj2P6debugobj
                                                  /tmp/ccxW9Zd7.ltrans0.ltrans.o
rgblight_call_driver                              .build/obj_sofle_rev1_EGF2/quantum/rgblight/rgblight.o (symbol from plugin)
rgblight_check_config                             .build/obj_sofle_rev1_EGF2/quantum/rgblight/rgblight.o (symbol from plugin)
rgblight_clear_change_flags                       .build/obj_sofle_rev1_EGF2/quantum/rgblight/rgblight.o (symbol from plugin)
                                                  .build/obj_sofle_rev1_EGF2/quantum/split_common/transactions.o (symbol from plugin)
rgblight_config                                   .build/obj_sofle_rev1_EGF2/quantum/rgblight/rgblight.o (symbol from plugin)
rgblight_decrease                                 .build/obj_sofle_rev1_EGF2/quantum/rgblight/rgblight.o (symbol from plugin)
rgblight_decrease_hue                             .build/obj_sofle_rev1_EGF2/quantum/rgblight/rgblight.o (symbol from plugin)
                                                  .build/obj_sofle_rev1_EGF2/quantum/process_keycode/process_rgb.o (symbol from plugin)
rgblight_decrease_hue_helper                      .build/obj_sofle_rev1_EGF2/quantum/rgblight/rgblight.o (symbol from plugin)
rgblight_decrease_hue_noeeprom                    .build/obj_sofle_rev1_EGF2/quantum/rgblight/rgblight.o (symbol from plugin)
rgblight_decrease_sat                             .build/obj_sofle_rev1_EGF2/quantum/rgblight/rgblight.o (symbol from plugin)
                                                  .build/obj_sofle_rev1_EGF2/quantum/process_keycode/process_rgb.o (symbol from plugin)
rgblight_decrease_sat_helper                      .build/obj_sofle_rev1_EGF2/quantum/rgblight/rgblight.o (symbol from plugin)
rgblight_decrease_sat_noeeprom                    .build/obj_sofle_rev1_EGF2/quantum/rgblight/rgblight.o (symbol from plugin)
rgblight_decrease_speed                           .build/obj_sofle_rev1_EGF2/quantum/rgblight/rgblight.o (symbol from plugin)
                                                  .build/obj_sofle_rev1_EGF2/quantum/process_keycode/process_rgb.o (symbol from plugin)
rgblight_decrease_speed_helper                    .build/obj_sofle_rev1_EGF2/quantum/rgblight/rgblight.o (symbol from plugin)
rgblight_decrease_speed_noeeprom                  .build/obj_sofle_rev1_EGF2/quantum/rgblight/rgblight.o (symbol from plugin)
rgblight_decrease_val                             .build/obj_sofle_rev1_EGF2/quantum/rgblight/rgblight.o (symbol from plugin)
                                                  .build/obj_sofle_rev1_EGF2/quantum/process_keycode/process_rgb.o (symbol from plugin)
rgblight_decrease_val_helper                      .build/obj_sofle_rev1_EGF2/quantum/rgblight/rgblight.o (symbol from plugin)
rgblight_decrease_val_noeeprom                    .build/obj_sofle_rev1_EGF2/quantum/rgblight/rgblight.o (symbol from plugin)
rgblight_disable                                  .build/obj_sofle_rev1_EGF2/quantum/rgblight/rgblight.o (symbol from plugin)
rgblight_disable_noeeprom                         .build/obj_sofle_rev1_EGF2/quantum/rgblight/rgblight.o (symbol from plugin)
rgblight_effect_alternating                       .build/obj_sofle_rev1_EGF2/quantum/rgblight/rgblight.o (symbol from plugin)
rgblight_effect_breathe_table                     .build/obj_sofle_rev1_EGF2/quantum/rgblight/rgblight.o (symbol from plugin)
rgblight_effect_christmas                         .build/obj_sofle_rev1_EGF2/quantum/rgblight/rgblight.o (symbol from plugin)
rgblight_effect_knight                            .build/obj_sofle_rev1_EGF2/quantum/rgblight/rgblight.o (symbol from plugin)
rgblight_effect_rainbow_mood                      .build/obj_sofle_rev1_EGF2/quantum/rgblight/rgblight.o (symbol from plugin)
rgblight_effect_rainbow_swirl                     .build/obj_sofle_rev1_EGF2/quantum/rgblight/rgblight.o (symbol from plugin)
rgblight_effect_rgbtest                           .build/obj_sofle_rev1_EGF2/quantum/rgblight/rgblight.o (symbol from plugin)
rgblight_effect_snake                             .build/obj_sofle_rev1_EGF2/quantum/rgblight/rgblight.o (symbol from plugin)
rgblight_effect_twinkle                           .build/obj_sofle_rev1_EGF2/quantum/rgblight/rgblight.o (symbol from plugin)
rgblight_enable                                   .build/obj_sofle_rev1_EGF2/quantum/rgblight/rgblight.o (symbol from plugin)
rgblight_enable_noeeprom                          .build/obj_sofle_rev1_EGF2/quantum/rgblight/rgblight.o (symbol from plugin)
rgblight_get_change_flags                         .build/obj_sofle_rev1_EGF2/quantum/rgblight/rgblight.o (symbol from plugin)
rgblight_get_hsv                                  .build/obj_sofle_rev1_EGF2/quantum/rgblight/rgblight.o (symbol from plugin)
rgblight_get_hue                                  .build/obj_sofle_rev1_EGF2/quantum/rgblight/rgblight.o (symbol from plugin)
rgblight_get_layer_state                          .build/obj_sofle_rev1_EGF2/quantum/rgblight/rgblight.o (symbol from plugin)
rgblight_get_mode                                 .build/obj_sofle_rev1_EGF2/quantum/rgblight/rgblight.o (symbol from plugin)
                                                  .build/obj_sofle_rev1_EGF2/quantum/process_keycode/process_rgb.o (symbol from plugin)
rgblight_get_sat                                  .build/obj_sofle_rev1_EGF2/quantum/rgblight/rgblight.o (symbol from plugin)
rgblight_get_speed                                .build/obj_sofle_rev1_EGF2/quantum/rgblight/rgblight.o (symbol from plugin)
rgblight_get_syncinfo                             .build/obj_sofle_rev1_EGF2/quantum/rgblight/rgblight.o (symbol from plugin)
                                                  .build/obj_sofle_rev1_EGF2/quantum/split_common/transactions.o (symbol from plugin)
rgblight_get_val                                  .build/obj_sofle_rev1_EGF2/quantum/rgblight/rgblight.o (symbol from plugin)
rgblight_hsv_to_rgb                               .build/obj_sofle_rev1_EGF2/quantum/rgblight/rgblight.o (symbol from plugin)
rgblight_increase                                 .build/obj_sofle_rev1_EGF2/quantum/rgblight/rgblight.o (symbol from plugin)
rgblight_increase_hue                             .build/obj_sofle_rev1_EGF2/quantum/rgblight/rgblight.o (symbol from plugin)
                                                  .build/obj_sofle_rev1_EGF2/quantum/process_keycode/process_rgb.o (symbol from plugin)
rgblight_increase_hue_helper                      .build/obj_sofle_rev1_EGF2/quantum/rgblight/rgblight.o (symbol from plugin)
rgblight_increase_hue_noeeprom                    .build/obj_sofle_rev1_EGF2/quantum/rgblight/rgblight.o (symbol from plugin)
rgblight_increase_sat                             .build/obj_sofle_rev1_EGF2/quantum/rgblight/rgblight.o (symbol from plugin)
                                                  .build/obj_sofle_rev1_EGF2/quantum/process_keycode/process_rgb.o (symbol from plugin)
rgblight_increase_sat_helper                      .build/obj_sofle_rev1_EGF2/quantum/rgblight/rgblight.o (symbol from plugin)
rgblight_increase_sat_noeeprom                    .build/obj_sofle_rev1_EGF2/quantum/rgblight/rgblight.o (symbol from plugin)
rgblight_increase_speed                           .build/obj_sofle_rev1_EGF2/quantum/rgblight/rgblight.o (symbol from plugin)
                                                  .build/obj_sofle_rev1_EGF2/quantum/process_keycode/process_rgb.o (symbol from plugin)
rgblight_increase_speed_helper                    .build/obj_sofle_rev1_EGF2/quantum/rgblight/rgblight.o (symbol from plugin)
rgblight_increase_speed_noeeprom                  .build/obj_sofle_rev1_EGF2/quantum/rgblight/rgblight.o (symbol from plugin)
rgblight_increase_val                             .build/obj_sofle_rev1_EGF2/quantum/rgblight/rgblight.o (symbol from plugin)
                                                  .build/obj_sofle_rev1_EGF2/quantum/process_keycode/process_rgb.o (symbol from plugin)
rgblight_increase_val_helper                      .build/obj_sofle_rev1_EGF2/quantum/rgblight/rgblight.o (symbol from plugin)
rgblight_increase_val_noeeprom                    .build/obj_sofle_rev1_EGF2/quantum/rgblight/rgblight.o (symbol from plugin)
rgblight_init                                     .build/obj_sofle_rev1_EGF2/quantum/rgblight/rgblight.o (symbol from plugin)
                                                  .build/obj_sofle_rev1_EGF2/quantum/keyboard.o (symbol from plugin)
rgblight_is_enabled                               .build/obj_sofle_rev1_EGF2/quantum/rgblight/rgblight.o (symbol from plugin)
rgblight_layers                                   .build/obj_sofle_rev1_EGF2/quantum/rgblight/rgblight.o (symbol from plugin)
                                                  .build/obj_sofle_rev1_EGF2/quantum/keymap_introspection.o (symbol from plugin)
rgblight_mode                                     .build/obj_sofle_rev1_EGF2/quantum/rgblight/rgblight.o (symbol from plugin)
                                                  .build/obj_sofle_rev1_EGF2/quantum/process_keycode/process_rgb.o (symbol from plugin)
                                                  .build/obj_sofle_rev1_EGF2/quantum/keymap_introspection.o (symbol from plugin)
rgblight_mode_eeprom_helper                       .build/obj_sofle_rev1_EGF2/quantum/rgblight/rgblight.o (symbol from plugin)
rgblight_mode_noeeprom                            .build/obj_sofle_rev1_EGF2/quantum/rgblight/rgblight.o (symbol from plugin)
rgblight_ranges                                   .build/obj_sofle_rev1_EGF2/quantum/rgblight/rgblight.o (symbol from plugin)
rgblight_read_dword                               .build/obj_sofle_rev1_EGF2/quantum/rgblight/rgblight.o (symbol from plugin)
rgblight_reload_from_eeprom                       .build/obj_sofle_rev1_EGF2/quantum/rgblight/rgblight.o (symbol from plugin)
rgblight_set                                      .build/obj_sofle_rev1_EGF2/quantum/rgblight/rgblight.o (symbol from plugin)
rgblight_set_clipping_range                       .build/obj_sofle_rev1_EGF2/quantum/rgblight/rgblight.o (symbol from plugin)
                                                  .build/obj_sofle_rev1_EGF2/quantum/split_common/split_util.o (symbol from plugin)
rgblight_set_effect_range                         .build/obj_sofle_rev1_EGF2/quantum/rgblight/rgblight.o (symbol from plugin)
rgblight_set_layer_state                          .build/obj_sofle_rev1_EGF2/quantum/rgblight/rgblight.o (symbol from plugin)
                                                  .build/obj_sofle_rev1_EGF2/quantum/keymap_introspection.o (symbol from plugin)
rgblight_set_speed                                .build/obj_sofle_rev1_EGF2/quantum/rgblight/rgblight.o (symbol from plugin)
rgblight_set_speed_eeprom_helper                  .build/obj_sofle_rev1_EGF2/quantum/rgblight/rgblight.o (symbol from plugin)
rgblight_set_speed_noeeprom                       .build/obj_sofle_rev1_EGF2/quantum/rgblight/rgblight.o (symbol from plugin)
rgblight_sethsv                                   .build/obj_sofle_rev1_EGF2/quantum/rgblight/rgblight.o (symbol from plugin)
rgblight_sethsv_at                                .build/obj_sofle_rev1_EGF2/quantum/rgblight/rgblight.o (symbol from plugin)
rgblight_sethsv_eeprom_helper                     .build/obj_sofle_rev1_EGF2/quantum/rgblight/rgblight.o (symbol from plugin)
rgblight_sethsv_noeeprom                          .build/obj_sofle_rev1_EGF2/quantum/rgblight/rgblight.o (symbol from plugin)
rgblight_sethsv_noeeprom_old                      .build/obj_sofle_rev1_EGF2/quantum/rgblight/rgblight.o (symbol from plugin)
rgblight_sethsv_range                             .build/obj_sofle_rev1_EGF2/quantum/rgblight/rgblight.o (symbol from plugin)
rgblight_setrgb                                   .build/obj_sofle_rev1_EGF2/quantum/rgblight/rgblight.o (symbol from plugin)
rgblight_setrgb_at                                .build/obj_sofle_rev1_EGF2/quantum/rgblight/rgblight.o (symbol from plugin)
rgblight_setrgb_range                             .build/obj_sofle_rev1_EGF2/quantum/rgblight/rgblight.o (symbol from plugin)
rgblight_show_solid_color                         .build/obj_sofle_rev1_EGF2/quantum/rgblight/rgblight.o (symbol from plugin)
rgblight_status                                   .build/obj_sofle_rev1_EGF2/quantum/rgblight/rgblight.o (symbol from plugin)
rgblight_step                                     .build/obj_sofle_rev1_EGF2/quantum/rgblight/rgblight.o (symbol from plugin)
                                                  .build/obj_sofle_rev1_EGF2/quantum/process_keycode/process_rgb.o (symbol from plugin)
rgblight_step_helper                              .build/obj_sofle_rev1_EGF2/quantum/rgblight/rgblight.o (symbol from plugin)
rgblight_step_noeeprom                            .build/obj_sofle_rev1_EGF2/quantum/rgblight/rgblight.o (symbol from plugin)
rgblight_step_reverse                             .build/obj_sofle_rev1_EGF2/quantum/rgblight/rgblight.o (symbol from plugin)
                                                  .build/obj_sofle_rev1_EGF2/quantum/process_keycode/process_rgb.o (symbol from plugin)
rgblight_step_reverse_helper                      .build/obj_sofle_rev1_EGF2/quantum/rgblight/rgblight.o (symbol from plugin)
rgblight_step_reverse_noeeprom                    .build/obj_sofle_rev1_EGF2/quantum/rgblight/rgblight.o (symbol from plugin)
rgblight_suspend                                  .build/obj_sofle_rev1_EGF2/quantum/rgblight/rgblight.o (symbol from plugin)
                                                  .build/obj_sofle_rev1_EGF2/quantum/quantum.o (symbol from plugin)
rgblight_task                                     .build/obj_sofle_rev1_EGF2/quantum/rgblight/rgblight.o (symbol from plugin)
                                                  .build/obj_sofle_rev1_EGF2/quantum/keyboard.o (symbol from plugin)
rgblight_timer_disable                            .build/obj_sofle_rev1_EGF2/quantum/rgblight/rgblight.o (symbol from plugin)
rgblight_timer_enable                             .build/obj_sofle_rev1_EGF2/quantum/rgblight/rgblight.o (symbol from plugin)
rgblight_timer_init                               .build/obj_sofle_rev1_EGF2/quantum/rgblight/rgblight.o (symbol from plugin)
rgblight_timer_toggle                             .build/obj_sofle_rev1_EGF2/quantum/rgblight/rgblight.o (symbol from plugin)
rgblight_toggle                                   .build/obj_sofle_rev1_EGF2/quantum/rgblight/rgblight.o (symbol from plugin)
                                                  .build/obj_sofle_rev1_EGF2/quantum/process_keycode/process_rgb.o (symbol from plugin)
rgblight_toggle_noeeprom                          .build/obj_sofle_rev1_EGF2/quantum/rgblight/rgblight.o (symbol from plugin)
rgblight_update_dword                             .build/obj_sofle_rev1_EGF2/quantum/rgblight/rgblight.o (symbol from plugin)
rgblight_update_sync                              .build/obj_sofle_rev1_EGF2/quantum/rgblight/rgblight.o (symbol from plugin)
                                                  .build/obj_sofle_rev1_EGF2/quantum/split_common/transactions.o (symbol from plugin)
rgblight_wakeup                                   .build/obj_sofle_rev1_EGF2/quantum/rgblight/rgblight.o (symbol from plugin)
                                                  .build/obj_sofle_rev1_EGF2/quantum/quantum.o (symbol from plugin)
rom_data_lookup                                   .build/obj_sofle_rev1/./lib/pico-sdk/src/rp2_common/pico_bootrom/bootrom.o (symbol from plugin)
rom_func_lookup                                   .build/obj_sofle_rev1/./lib/pico-sdk/src/rp2_common/pico_bootrom/bootrom.o (symbol from plugin)
                                                  .build/obj_sofle_rev1_EGF2/platforms/chibios/bootloaders/rp2040.o (symbol from plugin)
rom_funcs_lookup                                  .build/obj_sofle_rev1/./lib/pico-sdk/src/rp2_common/pico_bootrom/bootrom.o (symbol from plugin)
rp2040.c.2708c23b                                 /tmp/cc4Fj2P6debugobj
                                                  /tmp/ccxW9Zd7.ltrans0.ltrans.o
rp_dma.c.a9f57b9b                                 /tmp/cc4Fj2P6debugobj
                                                  /tmp/ccxW9Zd7.ltrans0.ltrans.o
rp_isr.c.353995f9                                 /tmp/cc4Fj2P6debugobj
                                                  /tmp/ccxW9Zd7.ltrans0.ltrans.o
rx_thread                                         .build/obj_sofle_rev1_EGF2/serial_vendor.a(serial_vendor.o)
send_byte                                         .build/obj_sofle_rev1_EGF2/quantum/send_string/send_string.o (symbol from plugin)
send_char                                         .build/obj_sofle_rev1_EGF2/quantum/send_string/send_string.o (symbol from plugin)
send_digitizer                                    .build/obj_sofle_rev1_EGF2/protocol/chibios/usb_main.o (symbol from plugin)
                                                  .build/obj_sofle_rev1_EGF2/protocol/host.o (symbol from plugin)
send_dword                                        .build/obj_sofle_rev1_EGF2/quantum/send_string/send_string.o (symbol from plugin)
send_extra                                        .build/obj_sofle_rev1_EGF2/protocol/chibios/usb_main.o (symbol from plugin)
                                                  .build/obj_sofle_rev1_EGF2/protocol/chibios/chibios.o (symbol from plugin)
send_joystick                                     .build/obj_sofle_rev1_EGF2/protocol/chibios/usb_main.o (symbol from plugin)
                                                  .build/obj_sofle_rev1_EGF2/protocol/host.o (symbol from plugin)
send_keyboard                                     .build/obj_sofle_rev1_EGF2/protocol/chibios/usb_main.o (symbol from plugin)
                                                  .build/obj_sofle_rev1_EGF2/protocol/chibios/chibios.o (symbol from plugin)
send_keyboard_report                              .build/obj_sofle_rev1_EGF2/quantum/action_util.o (symbol from plugin)
                                                  .build/obj_sofle_rev1_EGF2/protocol/chibios/chibios.o (symbol from plugin)
                                                  .build/obj_sofle_rev1_EGF2/quantum/process_keycode/process_tap_dance.o (symbol from plugin)
                                                  .build/obj_sofle_rev1_EGF2/quantum/process_keycode/process_grave_esc.o (symbol from plugin)
                                                  .build/obj_sofle_rev1_EGF2/quantum/action.o (symbol from plugin)
send_mouse                                        .build/obj_sofle_rev1_EGF2/protocol/chibios/usb_main.o (symbol from plugin)
                                                  .build/obj_sofle_rev1_EGF2/protocol/chibios/chibios.o (symbol from plugin)
send_nibble                                       .build/obj_sofle_rev1_EGF2/quantum/send_string/send_string.o (symbol from plugin)
send_programmable_button                          .build/obj_sofle_rev1_EGF2/protocol/chibios/usb_main.o (symbol from plugin)
                                                  .build/obj_sofle_rev1_EGF2/protocol/host.o (symbol from plugin)
send_string                                       .build/obj_sofle_rev1_EGF2/quantum/send_string/send_string.o (symbol from plugin)
send_string.c.1c8b3784                            /tmp/cc4Fj2P6debugobj
                                                  /tmp/ccxW9Zd7.ltrans0.ltrans.o
send_string_with_delay                            .build/obj_sofle_rev1_EGF2/quantum/send_string/send_string.o (symbol from plugin)
                                                  .build/obj_sofle_rev1_EGF2/quantum/keymap_introspection.o (symbol from plugin)
send_word                                         .build/obj_sofle_rev1_EGF2/quantum/send_string/send_string.o (symbol from plugin)
sendchar                                          .build/obj_sofle_rev1_EGF2/quantum/logging/sendchar.o (symbol from plugin)
                                                  .build/obj_sofle_rev1_EGF2/quantum/keyboard.o (symbol from plugin)
sendchar.c.0f4c0ed3                               /tmp/cc4Fj2P6debugobj
                                                  /tmp/ccxW9Zd7.ltrans0.ltrans.o
serial_transport_driver_clear                     .build/obj_sofle_rev1_EGF2/serial_vendor.a(serial_vendor.o)
                                                  .build/obj_sofle_rev1_EGF2/serial_protocol.a(serial_protocol.o)
serial_transport_driver_master_init               .build/obj_sofle_rev1_EGF2/serial_vendor.a(serial_vendor.o)
                                                  .build/obj_sofle_rev1_EGF2/serial_protocol.a(serial_protocol.o)
serial_transport_driver_slave_init                .build/obj_sofle_rev1_EGF2/serial_vendor.a(serial_vendor.o)
                                                  .build/obj_sofle_rev1_EGF2/serial_protocol.a(serial_protocol.o)
serial_transport_receive                          .build/obj_sofle_rev1_EGF2/serial_vendor.a(serial_vendor.o)
                                                  .build/obj_sofle_rev1_EGF2/serial_protocol.a(serial_protocol.o)
serial_transport_receive_blocking                 .build/obj_sofle_rev1_EGF2/serial_vendor.a(serial_vendor.o)
                                                  .build/obj_sofle_rev1_EGF2/serial_protocol.a(serial_protocol.o)
serial_transport_send                             .build/obj_sofle_rev1_EGF2/serial_vendor.a(serial_vendor.o)
                                                  .build/obj_sofle_rev1_EGF2/serial_protocol.a(serial_protocol.o)
set_current_wpm                                   .build/obj_sofle_rev1_EGF2/quantum/wpm.o (symbol from plugin)
set_mods                                          .build/obj_sofle_rev1_EGF2/quantum/action_util.o (symbol from plugin)
set_oneshot_layer                                 .build/obj_sofle_rev1_EGF2/quantum/action_util.o (symbol from plugin)
                                                  .build/obj_sofle_rev1_EGF2/quantum/action.o (symbol from plugin)
set_oneshot_locked_mods                           .build/obj_sofle_rev1_EGF2/quantum/action_util.o (symbol from plugin)
set_oneshot_mods                                  .build/obj_sofle_rev1_EGF2/quantum/action_util.o (symbol from plugin)
                                                  .build/obj_sofle_rev1_EGF2/quantum/action.o (symbol from plugin)
set_oneshot_swaphands                             .build/obj_sofle_rev1_EGF2/quantum/action_util.o (symbol from plugin)
                                                  .build/obj_sofle_rev1_EGF2/quantum/action.o (symbol from plugin)
set_single_persistent_default_layer               .build/obj_sofle_rev1_EGF2/quantum/quantum.o (symbol from plugin)
set_split_host_keyboard_leds                      .build/obj_sofle_rev1_EGF2/protocol/host.o (symbol from plugin)
set_swap_hands_state                              .build/obj_sofle_rev1_EGF2/quantum/action.o (symbol from plugin)
set_weak_mods                                     .build/obj_sofle_rev1_EGF2/quantum/action_util.o (symbol from plugin)
sethsv                                            .build/obj_sofle_rev1_EGF2/quantum/rgblight/rgblight.o (symbol from plugin)
sethsv_raw                                        .build/obj_sofle_rev1_EGF2/quantum/rgblight/rgblight.o (symbol from plugin)
setrgb                                            .build/obj_sofle_rev1_EGF2/quantum/rgblight/rgblight.o (symbol from plugin)
should_mousekey_report_send                       .build/obj_sofle_rev1_EGF2/quantum/mousekey.o (symbol from plugin)
should_process_encoder                            .build/obj_sofle_rev1_EGF2/quantum/encoder.o (symbol from plugin)
should_process_keypress                           .build/obj_sofle_rev1_EGF2/quantum/keyboard.o (symbol from plugin)
should_swap_hands                                 .build/obj_sofle_rev1_EGF2/quantum/action.o (symbol from plugin)
shutdown_quantum                                  .build/obj_sofle_rev1_EGF2/quantum/quantum.o (symbol from plugin)
shutdown_user                                     .build/obj_sofle_rev1_EGF2/quantum/quantum.o (symbol from plugin)
signal                                            /usr/lib/gcc/arm-none-eabi/8.3.1/../../../arm-none-eabi/lib/thumb/v6-m/nofp/libg_nano.a(lib_a-signal.o)
snprintf                                          /tmp/ccxW9Zd7.ltrans0.ltrans.o
sofle.c.b82cdffa                                  /tmp/cc4Fj2P6debugobj
                                                  /tmp/ccxW9Zd7.ltrans0.ltrans.o
soft_reset_keyboard                               .build/obj_sofle_rev1_EGF2/quantum/quantum.o (symbol from plugin)
soft_serial_initiator_init                        .build/obj_sofle_rev1_EGF2/serial_protocol.a(serial_protocol.o)
                                                  /tmp/ccxW9Zd7.ltrans0.ltrans.o
                                                  .build/obj_sofle_rev1_EGF2/quantum/split_common/transport.o (symbol from plugin)
soft_serial_target_init                           .build/obj_sofle_rev1_EGF2/serial_protocol.a(serial_protocol.o)
                                                  /tmp/ccxW9Zd7.ltrans0.ltrans.o
                                                  .build/obj_sofle_rev1_EGF2/quantum/split_common/transport.o (symbol from plugin)
soft_serial_transaction                           .build/obj_sofle_rev1_EGF2/serial_protocol.a(serial_protocol.o)
                                                  /tmp/ccxW9Zd7.ltrans0.ltrans.o
                                                  .build/obj_sofle_rev1_EGF2/quantum/split_common/transport.o (symbol from plugin)
source_layers_cache                               .build/obj_sofle_rev1_EGF2/quantum/action_layer.o (symbol from plugin)
spiAcquireBus                                     .build/obj_sofle_rev1/lib/chibios/os/hal/src/hal_spi.o (symbol from plugin)
spiExchange                                       .build/obj_sofle_rev1/lib/chibios/os/hal/src/hal_spi.o (symbol from plugin)
spiIgnore                                         .build/obj_sofle_rev1/lib/chibios/os/hal/src/hal_spi.o (symbol from plugin)
spiInit                                           .build/obj_sofle_rev1/lib/chibios/os/hal/src/hal_spi.o (symbol from plugin)
                                                  .build/obj_sofle_rev1/lib/chibios/os/hal/src/hal.o (symbol from plugin)
spiObjectInit                                     .build/obj_sofle_rev1/lib/chibios/os/hal/src/hal_spi.o (symbol from plugin)
                                                  .build/obj_sofle_rev1/lib/chibios/os/hal/ports/RP/LLD/SPIv1/hal_spi_lld.o (symbol from plugin)
spiReceive                                        .build/obj_sofle_rev1/lib/chibios/os/hal/src/hal_spi.o (symbol from plugin)
spiReleaseBus                                     .build/obj_sofle_rev1/lib/chibios/os/hal/src/hal_spi.o (symbol from plugin)
spiSelect                                         .build/obj_sofle_rev1/lib/chibios/os/hal/src/hal_spi.o (symbol from plugin)
spiSend                                           .build/obj_sofle_rev1/lib/chibios/os/hal/src/hal_spi.o (symbol from plugin)
spiStart                                          .build/obj_sofle_rev1/lib/chibios/os/hal/src/hal_spi.o (symbol from plugin)
spiStartExchange                                  .build/obj_sofle_rev1/lib/chibios/os/hal/src/hal_spi.o (symbol from plugin)
spiStartIgnore                                    .build/obj_sofle_rev1/lib/chibios/os/hal/src/hal_spi.o (symbol from plugin)
spiStartReceive                                   .build/obj_sofle_rev1/lib/chibios/os/hal/src/hal_spi.o (symbol from plugin)
spiStartSend                                      .build/obj_sofle_rev1/lib/chibios/os/hal/src/hal_spi.o (symbol from plugin)
spiStop                                           .build/obj_sofle_rev1/lib/chibios/os/hal/src/hal_spi.o (symbol from plugin)
spiUnselect                                       .build/obj_sofle_rev1/lib/chibios/os/hal/src/hal_spi.o (symbol from plugin)
spi_lld_exchange                                  .build/obj_sofle_rev1/lib/chibios/os/hal/ports/RP/LLD/SPIv1/hal_spi_lld.o (symbol from plugin)
                                                  .build/obj_sofle_rev1/lib/chibios/os/hal/src/hal_spi.o (symbol from plugin)
spi_lld_ignore                                    .build/obj_sofle_rev1/lib/chibios/os/hal/ports/RP/LLD/SPIv1/hal_spi_lld.o (symbol from plugin)
                                                  .build/obj_sofle_rev1/lib/chibios/os/hal/src/hal_spi.o (symbol from plugin)
spi_lld_init                                      .build/obj_sofle_rev1/lib/chibios/os/hal/ports/RP/LLD/SPIv1/hal_spi_lld.o (symbol from plugin)
                                                  .build/obj_sofle_rev1/lib/chibios/os/hal/src/hal_spi.o (symbol from plugin)
spi_lld_polled_exchange                           .build/obj_sofle_rev1/lib/chibios/os/hal/ports/RP/LLD/SPIv1/hal_spi_lld.o (symbol from plugin)
spi_lld_receive                                   .build/obj_sofle_rev1/lib/chibios/os/hal/ports/RP/LLD/SPIv1/hal_spi_lld.o (symbol from plugin)
                                                  .build/obj_sofle_rev1/lib/chibios/os/hal/src/hal_spi.o (symbol from plugin)
spi_lld_send                                      .build/obj_sofle_rev1/lib/chibios/os/hal/ports/RP/LLD/SPIv1/hal_spi_lld.o (symbol from plugin)
                                                  .build/obj_sofle_rev1/lib/chibios/os/hal/src/hal_spi.o (symbol from plugin)
spi_lld_start                                     .build/obj_sofle_rev1/lib/chibios/os/hal/ports/RP/LLD/SPIv1/hal_spi_lld.o (symbol from plugin)
                                                  .build/obj_sofle_rev1/lib/chibios/os/hal/src/hal_spi.o (symbol from plugin)
spi_lld_stop                                      .build/obj_sofle_rev1/lib/chibios/os/hal/ports/RP/LLD/SPIv1/hal_spi_lld.o (symbol from plugin)
                                                  .build/obj_sofle_rev1/lib/chibios/os/hal/src/hal_spi.o (symbol from plugin)
split_led_state                                   .build/obj_sofle_rev1_EGF2/protocol/host.o (symbol from plugin)
split_post_init                                   .build/obj_sofle_rev1_EGF2/quantum/split_common/split_util.o (symbol from plugin)
                                                  .build/obj_sofle_rev1_EGF2/quantum/keyboard.o (symbol from plugin)
split_pre_init                                    .build/obj_sofle_rev1_EGF2/quantum/split_common/split_util.o (symbol from plugin)
                                                  .build/obj_sofle_rev1_EGF2/quantum/keyboard.o (symbol from plugin)
split_shared_memory_lock                          /tmp/ccxW9Zd7.ltrans0.ltrans.o
                                                  .build/obj_sofle_rev1/platforms/chibios/synchronization_util.o (symbol from plugin)
                                                  .build/obj_sofle_rev1_EGF2/serial_protocol.a(serial_protocol.o)
                                                  .build/obj_sofle_rev1_EGF2/quantum/split_common/transactions.o (symbol from plugin)
split_shared_memory_unlock                        /tmp/ccxW9Zd7.ltrans0.ltrans.o
                                                  .build/obj_sofle_rev1/platforms/chibios/synchronization_util.o (symbol from plugin)
                                                  .build/obj_sofle_rev1_EGF2/serial_protocol.a(serial_protocol.o)
                                                  .build/obj_sofle_rev1_EGF2/quantum/split_common/transactions.o (symbol from plugin)
split_shmem                                       /tmp/ccxW9Zd7.ltrans0.ltrans.o
                                                  .build/obj_sofle_rev1_EGF2/quantum/split_common/transport.o (symbol from plugin)
                                                  .build/obj_sofle_rev1_EGF2/serial_protocol.a(serial_protocol.o)
                                                  .build/obj_sofle_rev1_EGF2/quantum/split_common/transactions.o (symbol from plugin)
split_transaction_table                           /tmp/ccxW9Zd7.ltrans0.ltrans.o
                                                  .build/obj_sofle_rev1_EGF2/quantum/split_common/transactions.o (symbol from plugin)
                                                  .build/obj_sofle_rev1_EGF2/serial_protocol.a(serial_protocol.o)
                                                  .build/obj_sofle_rev1_EGF2/quantum/split_common/transport.o (symbol from plugin)
split_util.c.53cdcf44                             /tmp/cc4Fj2P6debugobj
                                                  /tmp/ccxW9Zd7.ltrans0.ltrans.o
sprintf                                           /tmp/ccxW9Zd7.ltrans0.ltrans.o
srand                                             /usr/lib/gcc/arm-none-eabi/8.3.1/../../../arm-none-eabi/lib/thumb/v6-m/nofp/libg_nano.a(lib_a-rand.o)
ssd1306_sh1106.c.bef67ccf                         /tmp/cc4Fj2P6debugobj
                                                  /tmp/ccxW9Zd7.ltrans0.ltrans.o
stBind                                            .build/obj_sofle_rev1/lib/chibios/os/hal/src/hal_st.o (symbol from plugin)
stBindAlarmN                                      .build/obj_sofle_rev1/lib/chibios/os/hal/src/hal_st.o (symbol from plugin)
                                                  .build/obj_sofle_rev1/lib/chibios/os/common/ports/ARMv6-M-RP2/chcore.o (symbol from plugin)
stGetAlarm                                        .build/obj_sofle_rev1/lib/chibios/os/hal/src/hal_st.o (symbol from plugin)
stGetAlarmN                                       .build/obj_sofle_rev1/lib/chibios/os/hal/src/hal_st.o (symbol from plugin)
stGetCounter                                      .build/obj_sofle_rev1/lib/chibios/os/hal/src/hal_st.o (symbol from plugin)
                                                  .build/obj_sofle_rev1/lib/chibios-contrib/os/hal/ports/RP/LLD/I2Cv1/hal_i2c_lld.o (symbol from plugin)
                                                  .build/obj_sofle_rev1/lib/chibios/os/rt/src/chthreads.o (symbol from plugin)
                                                  .build/obj_sofle_rev1/lib/chibios/os/rt/src/chinstances.o (symbol from plugin)
                                                  .build/obj_sofle_rev1/lib/chibios/os/rt/src/chvt.o (symbol from plugin)
                                                  .build/obj_sofle_rev1_EGF2/platforms/chibios/timer.o (symbol from plugin)
stInit                                            .build/obj_sofle_rev1/lib/chibios/os/hal/src/hal_st.o (symbol from plugin)
                                                  .build/obj_sofle_rev1/lib/chibios/os/hal/src/hal.o (symbol from plugin)
stIsAlarmActive                                   .build/obj_sofle_rev1/lib/chibios/os/hal/src/hal_st.o (symbol from plugin)
stIsAlarmActiveN                                  .build/obj_sofle_rev1/lib/chibios/os/hal/src/hal_st.o (symbol from plugin)
stSetAlarm                                        .build/obj_sofle_rev1/lib/chibios/os/hal/src/hal_st.o (symbol from plugin)
stSetAlarmN                                       .build/obj_sofle_rev1/lib/chibios/os/hal/src/hal_st.o (symbol from plugin)
                                                  .build/obj_sofle_rev1/lib/chibios/os/rt/src/chvt.o (symbol from plugin)
stSetCallback                                     .build/obj_sofle_rev1/lib/chibios/os/hal/src/hal_st.o (symbol from plugin)
stStartAlarm                                      .build/obj_sofle_rev1/lib/chibios/os/hal/src/hal_st.o (symbol from plugin)
stStartAlarmN                                     .build/obj_sofle_rev1/lib/chibios/os/hal/src/hal_st.o (symbol from plugin)
                                                  .build/obj_sofle_rev1/lib/chibios/os/rt/src/chvt.o (symbol from plugin)
stStopAlarm                                       .build/obj_sofle_rev1/lib/chibios/os/hal/src/hal_st.o (symbol from plugin)
stStopAlarmN                                      .build/obj_sofle_rev1/lib/chibios/os/hal/src/hal_st.o (symbol from plugin)
                                                  .build/obj_sofle_rev1/lib/chibios/os/rt/src/chvt.o (symbol from plugin)
st_callbacks                                      .build/obj_sofle_rev1/lib/chibios/os/hal/src/hal_st.o (symbol from plugin)
                                                  .build/obj_sofle_rev1/lib/chibios/os/hal/ports/RP/LLD/TIMERv1/hal_st_lld.o (symbol from plugin)
st_lld_bind                                       .build/obj_sofle_rev1/lib/chibios/os/hal/ports/RP/LLD/TIMERv1/hal_st_lld.o (symbol from plugin)
                                                  .build/obj_sofle_rev1/lib/chibios/os/hal/src/hal_st.o (symbol from plugin)
st_lld_bind_alarm_n                               .build/obj_sofle_rev1/lib/chibios/os/hal/ports/RP/LLD/TIMERv1/hal_st_lld.o (symbol from plugin)
                                                  .build/obj_sofle_rev1/lib/chibios/os/hal/src/hal_st.o (symbol from plugin)
st_lld_init                                       .build/obj_sofle_rev1/lib/chibios/os/hal/ports/RP/LLD/TIMERv1/hal_st_lld.o (symbol from plugin)
                                                  .build/obj_sofle_rev1/lib/chibios/os/hal/src/hal_st.o (symbol from plugin)
stage2_bootloaders.c.65a41bdf                     /tmp/cc4Fj2P6debugobj
                                                  /tmp/ccxW9Zd7.ltrans0.ltrans.o
startup_user                                      .build/obj_sofle_rev1_EGF2/quantum/quantum.o (symbol from plugin)
store_or_get_action                               .build/obj_sofle_rev1_EGF2/quantum/action_layer.o (symbol from plugin)
                                                  .build/obj_sofle_rev1_EGF2/quantum/action.o (symbol from plugin)
strlen                                            /usr/lib/gcc/arm-none-eabi/8.3.1/../../../arm-none-eabi/lib/thumb/v6-m/nofp/libg_nano.a(lib_a-strlen-stub.o)
                                                  /tmp/ccxW9Zd7.ltrans0.ltrans.o
suspend.c.fa637a75                                /tmp/cc4Fj2P6debugobj
                                                  /tmp/ccxW9Zd7.ltrans0.ltrans.o
suspend.c.fd971900                                /tmp/cc4Fj2P6debugobj
                                                  /tmp/ccxW9Zd7.ltrans0.ltrans.o
suspend_power_down                                .build/obj_sofle_rev1_EGF2/platforms/chibios/suspend.o (symbol from plugin)
                                                  .build/obj_sofle_rev1_EGF2/protocol/chibios/chibios.o (symbol from plugin)
suspend_power_down_kb                             .build/obj_sofle_rev1_EGF2/platforms/suspend.o (symbol from plugin)
                                                  .build/obj_sofle_rev1_EGF2/quantum/quantum.o (symbol from plugin)
suspend_power_down_quantum                        .build/obj_sofle_rev1_EGF2/quantum/quantum.o (symbol from plugin)
                                                  .build/obj_sofle_rev1_EGF2/platforms/chibios/suspend.o (symbol from plugin)
suspend_power_down_user                           .build/obj_sofle_rev1_EGF2/platforms/suspend.o (symbol from plugin)
suspend_wakeup_condition                          .build/obj_sofle_rev1_EGF2/platforms/suspend.o (symbol from plugin)
                                                  .build/obj_sofle_rev1_EGF2/protocol/chibios/chibios.o (symbol from plugin)
suspend_wakeup_init                               .build/obj_sofle_rev1_EGF2/platforms/chibios/suspend.o (symbol from plugin)
                                                  .build/obj_sofle_rev1_EGF2/protocol/chibios/usb_main.o (symbol from plugin)
suspend_wakeup_init_kb                            .build/obj_sofle_rev1_EGF2/platforms/suspend.o (symbol from plugin)
                                                  .build/obj_sofle_rev1_EGF2/quantum/quantum.o (symbol from plugin)
suspend_wakeup_init_quantum                       .build/obj_sofle_rev1_EGF2/quantum/quantum.o (symbol from plugin)
                                                  .build/obj_sofle_rev1_EGF2/platforms/chibios/suspend.o (symbol from plugin)
suspend_wakeup_init_user                          .build/obj_sofle_rev1_EGF2/platforms/suspend.o (symbol from plugin)
swap_hands                                        .build/obj_sofle_rev1_EGF2/quantum/action.o (symbol from plugin)
                                                  .build/obj_sofle_rev1_EGF2/quantum/action_util.o (symbol from plugin)
swap_hands_oneshot                                .build/obj_sofle_rev1_EGF2/quantum/action_util.o (symbol from plugin)
swap_held                                         .build/obj_sofle_rev1_EGF2/quantum/action.o (symbol from plugin)
switch_events                                     .build/obj_sofle_rev1_EGF2/quantum/keyboard.o (symbol from plugin)
sym_defer_g.c.744342ae                            /tmp/cc4Fj2P6debugobj
                                                  /tmp/ccxW9Zd7.ltrans0.ltrans.o
sync_timer.c.f05a7894                             /tmp/cc4Fj2P6debugobj
                                                  /tmp/ccxW9Zd7.ltrans0.ltrans.o
sync_timer_elapsed                                .build/obj_sofle_rev1_EGF2/quantum/sync_timer.o (symbol from plugin)
sync_timer_elapsed32                              .build/obj_sofle_rev1_EGF2/quantum/sync_timer.o (symbol from plugin)
sync_timer_init                                   .build/obj_sofle_rev1_EGF2/quantum/sync_timer.o (symbol from plugin)
                                                  .build/obj_sofle_rev1_EGF2/quantum/keyboard.o (symbol from plugin)
sync_timer_ms                                     .build/obj_sofle_rev1_EGF2/quantum/sync_timer.o (symbol from plugin)
sync_timer_read                                   .build/obj_sofle_rev1_EGF2/quantum/sync_timer.o (symbol from plugin)
                                                  .build/obj_sofle_rev1_EGF2/quantum/rgblight/rgblight.o (symbol from plugin)
sync_timer_read32                                 .build/obj_sofle_rev1_EGF2/quantum/sync_timer.o (symbol from plugin)
                                                  .build/obj_sofle_rev1_EGF2/quantum/split_common/transactions.o (symbol from plugin)
sync_timer_update                                 .build/obj_sofle_rev1_EGF2/quantum/sync_timer.o (symbol from plugin)
                                                  .build/obj_sofle_rev1_EGF2/quantum/split_common/transactions.o (symbol from plugin)
synchronization_util.c.4247ee4f                   /tmp/cc4Fj2P6debugobj
                                                  /tmp/ccxW9Zd7.ltrans0.ltrans.o
syscall_fallbacks.c.a895b4d0                      /tmp/cc4Fj2P6debugobj
                                                  /tmp/ccxW9Zd7.ltrans0.ltrans.o
syscalls.c.a2ee67e0                               /tmp/cc4Fj2P6debugobj
                                                  /tmp/ccxW9Zd7.ltrans0.ltrans.o
tap_code                                          .build/obj_sofle_rev1_EGF2/quantum/action.o (symbol from plugin)
                                                  .build/obj_sofle_rev1_EGF2/quantum/process_keycode/process_space_cadet.o (symbol from plugin)
                                                  .build/obj_sofle_rev1_EGF2/quantum/send_string/send_string.o (symbol from plugin)
                                                  .build/obj_sofle_rev1_EGF2/quantum/keymap_introspection.o (symbol from plugin)
tap_code16                                        .build/obj_sofle_rev1_EGF2/quantum/quantum.o (symbol from plugin)
tap_code16_delay                                  .build/obj_sofle_rev1_EGF2/quantum/quantum.o (symbol from plugin)
tap_code_delay                                    .build/obj_sofle_rev1_EGF2/quantum/action.o (symbol from plugin)
tap_dance_actions                                 .build/obj_sofle_rev1_EGF2/quantum/keymap_introspection.o (symbol from plugin)
                                                  .build/obj_sofle_rev1_EGF2/quantum/process_keycode/process_tap_dance.o (symbol from plugin)
tap_dance_task                                    .build/obj_sofle_rev1_EGF2/quantum/process_keycode/process_tap_dance.o (symbol from plugin)
                                                  .build/obj_sofle_rev1_EGF2/quantum/keyboard.o (symbol from plugin)
tap_random_base64                                 .build/obj_sofle_rev1_EGF2/quantum/send_string/send_string.o (symbol from plugin)
thatHand                                          .build/obj_sofle_rev1_EGF2/quantum/matrix_common.o (symbol from plugin)
                                                  .build/obj_sofle_rev1_EGF2/quantum/matrix.o (symbol from plugin)
thisHand                                          .build/obj_sofle_rev1_EGF2/quantum/matrix_common.o (symbol from plugin)
                                                  .build/obj_sofle_rev1_EGF2/quantum/matrix.o (symbol from plugin)
timer.c.6b66a3c4                                  /tmp/cc4Fj2P6debugobj
                                                  /tmp/ccxW9Zd7.ltrans0.ltrans.o
timer_clear                                       .build/obj_sofle_rev1_EGF2/platforms/chibios/timer.o (symbol from plugin)
timer_elapsed                                     .build/obj_sofle_rev1_EGF2/platforms/chibios/timer.o (symbol from plugin)
                                                  .build/obj_sofle_rev1_EGF2/quantum/velocikey.o (symbol from plugin)
                                                  .build/obj_sofle_rev1_EGF2/quantum/process_keycode/process_tap_dance.o (symbol from plugin)
                                                  .build/obj_sofle_rev1_EGF2/quantum/process_keycode/process_space_cadet.o (symbol from plugin)
                                                  .build/obj_sofle_rev1_EGF2/ssd1306_sh1106.o (symbol from plugin)
                                                  .build/obj_sofle_rev1_EGF2/quantum/mousekey.o (symbol from plugin)
                                                  .build/obj_sofle_rev1_EGF2/quantum/split_common/split_util.o (symbol from plugin)
                                                  .build/obj_sofle_rev1_EGF2/quantum/sync_timer.o (symbol from plugin)
timer_elapsed32                                   .build/obj_sofle_rev1_EGF2/platforms/chibios/timer.o (symbol from plugin)
                                                  .build/obj_sofle_rev1_EGF2/quantum/wpm.o (symbol from plugin)
                                                  .build/obj_sofle_rev1_EGF2/quantum/split_common/transactions.o (symbol from plugin)
                                                  .build/obj_sofle_rev1_EGF2/quantum/debounce/sym_defer_g.o (symbol from plugin)
                                                  .build/obj_sofle_rev1_EGF2/quantum/sync_timer.o (symbol from plugin)
                                                  .build/obj_sofle_rev1_EGF2/quantum/keyboard.o (symbol from plugin)
                                                  .build/obj_sofle_rev1_EGF2/quantum/led.o (symbol from plugin)
timer_init                                        .build/obj_sofle_rev1_EGF2/platforms/chibios/timer.o (symbol from plugin)
                                                  .build/obj_sofle_rev1_EGF2/quantum/keyboard.o (symbol from plugin)
timer_read                                        .build/obj_sofle_rev1_EGF2/platforms/chibios/timer.o (symbol from plugin)
                                                  .build/obj_sofle_rev1_EGF2/quantum/velocikey.o (symbol from plugin)
                                                  .build/obj_sofle_rev1_EGF2/quantum/process_keycode/process_tap_dance.o (symbol from plugin)
                                                  .build/obj_sofle_rev1_EGF2/quantum/process_keycode/process_space_cadet.o (symbol from plugin)
                                                  .build/obj_sofle_rev1_EGF2/ssd1306_sh1106.o (symbol from plugin)
                                                  .build/obj_sofle_rev1_EGF2/quantum/mousekey.o (symbol from plugin)
                                                  .build/obj_sofle_rev1_EGF2/quantum/split_common/split_util.o (symbol from plugin)
                                                  .build/obj_sofle_rev1_EGF2/quantum/sync_timer.o (symbol from plugin)
                                                  .build/obj_sofle_rev1_EGF2/quantum/keyboard.o (symbol from plugin)
timer_read32                                      .build/obj_sofle_rev1_EGF2/platforms/chibios/timer.o (symbol from plugin)
                                                  .build/obj_sofle_rev1_EGF2/quantum/wpm.o (symbol from plugin)
                                                  .build/obj_sofle_rev1_EGF2/ssd1306_sh1106.o (symbol from plugin)
                                                  .build/obj_sofle_rev1_EGF2/quantum/split_common/transactions.o (symbol from plugin)
                                                  .build/obj_sofle_rev1_EGF2/quantum/debounce/sym_defer_g.o (symbol from plugin)
                                                  .build/obj_sofle_rev1_EGF2/quantum/sync_timer.o (symbol from plugin)
                                                  .build/obj_sofle_rev1_EGF2/quantum/keyboard.o (symbol from plugin)
                                                  .build/obj_sofle_rev1_EGF2/quantum/led.o (symbol from plugin)
tp_buttons                                        .build/obj_sofle_rev1_EGF2/quantum/action.o (symbol from plugin)
transactions.c.a7f952e6                           /tmp/cc4Fj2P6debugobj
                                                  /tmp/ccxW9Zd7.ltrans0.ltrans.o
transactions_master                               .build/obj_sofle_rev1_EGF2/quantum/split_common/transactions.o (symbol from plugin)
                                                  .build/obj_sofle_rev1_EGF2/quantum/split_common/transport.o (symbol from plugin)
transactions_slave                                .build/obj_sofle_rev1_EGF2/quantum/split_common/transactions.o (symbol from plugin)
                                                  .build/obj_sofle_rev1_EGF2/quantum/split_common/transport.o (symbol from plugin)
transport.c.b311cd17                              /tmp/cc4Fj2P6debugobj
                                                  /tmp/ccxW9Zd7.ltrans0.ltrans.o
transport_execute_transaction                     .build/obj_sofle_rev1_EGF2/quantum/split_common/transport.o (symbol from plugin)
                                                  .build/obj_sofle_rev1_EGF2/quantum/split_common/transactions.o (symbol from plugin)
transport_master                                  .build/obj_sofle_rev1_EGF2/quantum/split_common/transport.o (symbol from plugin)
                                                  .build/obj_sofle_rev1_EGF2/quantum/split_common/split_util.o (symbol from plugin)
                                                  .build/obj_sofle_rev1_EGF2/quantum/matrix.o (symbol from plugin)
transport_master_if_connected                     .build/obj_sofle_rev1_EGF2/quantum/split_common/split_util.o (symbol from plugin)
                                                  .build/obj_sofle_rev1_EGF2/quantum/matrix.o (symbol from plugin)
                                                  .build/obj_sofle_rev1_EGF2/quantum/matrix_common.o (symbol from plugin)
transport_master_init                             .build/obj_sofle_rev1_EGF2/quantum/split_common/transport.o (symbol from plugin)
                                                  .build/obj_sofle_rev1_EGF2/quantum/split_common/split_util.o (symbol from plugin)
transport_slave                                   .build/obj_sofle_rev1_EGF2/quantum/split_common/transport.o (symbol from plugin)
                                                  .build/obj_sofle_rev1_EGF2/quantum/matrix_common.o (symbol from plugin)
transport_slave_init                              .build/obj_sofle_rev1_EGF2/quantum/split_common/transport.o (symbol from plugin)
                                                  .build/obj_sofle_rev1_EGF2/quantum/split_common/split_util.o (symbol from plugin)
tx_thread                                         .build/obj_sofle_rev1_EGF2/serial_vendor.a(serial_vendor.o)
typing_speed                                      .build/obj_sofle_rev1_EGF2/quantum/velocikey.o (symbol from plugin)
unregister_code                                   .build/obj_sofle_rev1_EGF2/quantum/action.o (symbol from plugin)
                                                  .build/obj_sofle_rev1_EGF2/quantum/send_string/send_string.o (symbol from plugin)
                                                  .build/obj_sofle_rev1_EGF2/quantum/quantum.o (symbol from plugin)
unregister_code16                                 .build/obj_sofle_rev1_EGF2/quantum/quantum.o (symbol from plugin)
                                                  .build/obj_sofle_rev1_EGF2/quantum/process_keycode/process_tap_dance.o (symbol from plugin)
unregister_mods                                   .build/obj_sofle_rev1_EGF2/quantum/action.o (symbol from plugin)
                                                  .build/obj_sofle_rev1_EGF2/quantum/process_keycode/process_space_cadet.o (symbol from plugin)
                                                  .build/obj_sofle_rev1_EGF2/quantum/quantum.o (symbol from plugin)
unregister_weak_mods                              .build/obj_sofle_rev1_EGF2/quantum/action.o (symbol from plugin)
                                                  .build/obj_sofle_rev1_EGF2/quantum/quantum.o (symbol from plugin)
update_source_layers_cache                        .build/obj_sofle_rev1_EGF2/quantum/action_layer.o (symbol from plugin)
                                                  .build/obj_sofle_rev1_EGF2/quantum/quantum.o (symbol from plugin)
update_source_layers_cache_impl                   .build/obj_sofle_rev1_EGF2/quantum/action_layer.o (symbol from plugin)
update_tri_layer                                  .build/obj_sofle_rev1_EGF2/quantum/quantum.o (symbol from plugin)
update_tri_layer_state                            .build/obj_sofle_rev1_EGF2/quantum/quantum.o (symbol from plugin)
update_wpm                                        .build/obj_sofle_rev1_EGF2/quantum/wpm.o (symbol from plugin)
                                                  .build/obj_sofle_rev1_EGF2/quantum/quantum.o (symbol from plugin)
usbDisableEndpointsI                              .build/obj_sofle_rev1/lib/chibios/os/hal/src/hal_usb.o (symbol from plugin)
usbInit                                           .build/obj_sofle_rev1/lib/chibios/os/hal/src/hal_usb.o (symbol from plugin)
                                                  .build/obj_sofle_rev1/lib/chibios/os/hal/src/hal.o (symbol from plugin)
usbInitEndpointI                                  .build/obj_sofle_rev1/lib/chibios/os/hal/src/hal_usb.o (symbol from plugin)
                                                  .build/obj_sofle_rev1_EGF2/protocol/chibios/usb_main.o (symbol from plugin)
usbObjectInit                                     .build/obj_sofle_rev1/lib/chibios/os/hal/src/hal_usb.o (symbol from plugin)
                                                  .build/obj_sofle_rev1/lib/chibios-contrib/os/hal/ports/RP/LLD/USBDv1/hal_usb_lld.o (symbol from plugin)
usbReceive                                        .build/obj_sofle_rev1/lib/chibios/os/hal/src/hal_usb.o (symbol from plugin)
usbStallReceiveI                                  .build/obj_sofle_rev1/lib/chibios/os/hal/src/hal_usb.o (symbol from plugin)
usbStallTransmitI                                 .build/obj_sofle_rev1/lib/chibios/os/hal/src/hal_usb.o (symbol from plugin)
usbStart                                          .build/obj_sofle_rev1/lib/chibios/os/hal/src/hal_usb.o (symbol from plugin)
                                                  .build/obj_sofle_rev1_EGF2/protocol/chibios/usb_main.o (symbol from plugin)
usbStartReceiveI                                  .build/obj_sofle_rev1/lib/chibios/os/hal/src/hal_usb.o (symbol from plugin)
                                                  .build/obj_sofle_rev1_EGF2/protocol/chibios/usb_driver.o (symbol from plugin)
usbStartTransmitI                                 .build/obj_sofle_rev1/lib/chibios/os/hal/src/hal_usb.o (symbol from plugin)
                                                  .build/obj_sofle_rev1_EGF2/protocol/chibios/usb_driver.o (symbol from plugin)
                                                  .build/obj_sofle_rev1_EGF2/protocol/chibios/usb_main.o (symbol from plugin)
usbStop                                           .build/obj_sofle_rev1/lib/chibios/os/hal/src/hal_usb.o (symbol from plugin)
                                                  .build/obj_sofle_rev1_EGF2/protocol/chibios/usb_util.o (symbol from plugin)
                                                  .build/obj_sofle_rev1_EGF2/protocol/chibios/usb_main.o (symbol from plugin)
usbTransmit                                       .build/obj_sofle_rev1/lib/chibios/os/hal/src/hal_usb.o (symbol from plugin)
usbWakeupHost                                     .build/obj_sofle_rev1/lib/chibios/os/hal/src/hal_usb.o (symbol from plugin)
                                                  .build/obj_sofle_rev1_EGF2/protocol/chibios/chibios.o (symbol from plugin)
usb_connected_state                               .build/obj_sofle_rev1_EGF2/protocol/chibios/usb_util.o (symbol from plugin)
                                                  .build/obj_sofle_rev1_EGF2/protocol/usb_util.o (symbol from plugin)
                                                  .build/obj_sofle_rev1_EGF2/quantum/split_common/split_util.o (symbol from plugin)
usb_descriptor.c.f1e4cc85                         /tmp/cc4Fj2P6debugobj
                                                  /tmp/ccxW9Zd7.ltrans0.ltrans.o
usb_device_state                                  .build/obj_sofle_rev1_EGF2/protocol/usb_device_state.o (symbol from plugin)
usb_device_state.c.6ab0f3eb                       /tmp/cc4Fj2P6debugobj
                                                  /tmp/ccxW9Zd7.ltrans0.ltrans.o
usb_device_state_init                             .build/obj_sofle_rev1_EGF2/protocol/usb_device_state.o (symbol from plugin)
                                                  .build/obj_sofle_rev1_EGF2/protocol/chibios/chibios.o (symbol from plugin)
usb_device_state_set_configuration                .build/obj_sofle_rev1_EGF2/protocol/usb_device_state.o (symbol from plugin)
                                                  .build/obj_sofle_rev1_EGF2/protocol/chibios/usb_main.o (symbol from plugin)
usb_device_state_set_reset                        .build/obj_sofle_rev1_EGF2/protocol/usb_device_state.o (symbol from plugin)
                                                  .build/obj_sofle_rev1_EGF2/protocol/chibios/usb_main.o (symbol from plugin)
usb_device_state_set_resume                       .build/obj_sofle_rev1_EGF2/protocol/usb_device_state.o (symbol from plugin)
                                                  .build/obj_sofle_rev1_EGF2/protocol/chibios/usb_main.o (symbol from plugin)
usb_device_state_set_suspend                      .build/obj_sofle_rev1_EGF2/protocol/usb_device_state.o (symbol from plugin)
                                                  .build/obj_sofle_rev1_EGF2/protocol/chibios/usb_main.o (symbol from plugin)
usb_disconnect                                    .build/obj_sofle_rev1_EGF2/protocol/chibios/usb_util.o (symbol from plugin)
                                                  .build/obj_sofle_rev1_EGF2/protocol/usb_util.o (symbol from plugin)
                                                  .build/obj_sofle_rev1_EGF2/quantum/split_common/split_util.o (symbol from plugin)
usb_driver.c.fdd9cd91                             /tmp/cc4Fj2P6debugobj
usb_event_queue_init                              .build/obj_sofle_rev1_EGF2/protocol/chibios/usb_main.o (symbol from plugin)
                                                  .build/obj_sofle_rev1_EGF2/protocol/chibios/chibios.o (symbol from plugin)
usb_event_queue_task                              .build/obj_sofle_rev1_EGF2/protocol/chibios/usb_main.o (symbol from plugin)
                                                  .build/obj_sofle_rev1_EGF2/protocol/chibios/chibios.o (symbol from plugin)
usb_lld_clear_in                                  .build/obj_sofle_rev1/lib/chibios-contrib/os/hal/ports/RP/LLD/USBDv1/hal_usb_lld.o (symbol from plugin)
                                                  .build/obj_sofle_rev1/lib/chibios/os/hal/src/hal_usb.o (symbol from plugin)
usb_lld_clear_out                                 .build/obj_sofle_rev1/lib/chibios-contrib/os/hal/ports/RP/LLD/USBDv1/hal_usb_lld.o (symbol from plugin)
                                                  .build/obj_sofle_rev1/lib/chibios/os/hal/src/hal_usb.o (symbol from plugin)
usb_lld_disable_endpoints                         .build/obj_sofle_rev1/lib/chibios-contrib/os/hal/ports/RP/LLD/USBDv1/hal_usb_lld.o (symbol from plugin)
                                                  .build/obj_sofle_rev1/lib/chibios/os/hal/src/hal_usb.o (symbol from plugin)
usb_lld_get_status_in                             .build/obj_sofle_rev1/lib/chibios-contrib/os/hal/ports/RP/LLD/USBDv1/hal_usb_lld.o (symbol from plugin)
                                                  .build/obj_sofle_rev1/lib/chibios/os/hal/src/hal_usb.o (symbol from plugin)
usb_lld_get_status_out                            .build/obj_sofle_rev1/lib/chibios-contrib/os/hal/ports/RP/LLD/USBDv1/hal_usb_lld.o (symbol from plugin)
                                                  .build/obj_sofle_rev1/lib/chibios/os/hal/src/hal_usb.o (symbol from plugin)
usb_lld_init                                      .build/obj_sofle_rev1/lib/chibios-contrib/os/hal/ports/RP/LLD/USBDv1/hal_usb_lld.o (symbol from plugin)
                                                  .build/obj_sofle_rev1/lib/chibios/os/hal/src/hal_usb.o (symbol from plugin)
usb_lld_init_endpoint                             .build/obj_sofle_rev1/lib/chibios-contrib/os/hal/ports/RP/LLD/USBDv1/hal_usb_lld.o (symbol from plugin)
                                                  .build/obj_sofle_rev1/lib/chibios/os/hal/src/hal_usb.o (symbol from plugin)
usb_lld_read_setup                                .build/obj_sofle_rev1/lib/chibios-contrib/os/hal/ports/RP/LLD/USBDv1/hal_usb_lld.o (symbol from plugin)
                                                  .build/obj_sofle_rev1/lib/chibios/os/hal/src/hal_usb.o (symbol from plugin)
usb_lld_reset                                     .build/obj_sofle_rev1/lib/chibios-contrib/os/hal/ports/RP/LLD/USBDv1/hal_usb_lld.o (symbol from plugin)
                                                  .build/obj_sofle_rev1/lib/chibios/os/hal/src/hal_usb.o (symbol from plugin)
usb_lld_set_address                               .build/obj_sofle_rev1/lib/chibios-contrib/os/hal/ports/RP/LLD/USBDv1/hal_usb_lld.o (symbol from plugin)
                                                  .build/obj_sofle_rev1/lib/chibios/os/hal/src/hal_usb.o (symbol from plugin)
usb_lld_stall_in                                  .build/obj_sofle_rev1/lib/chibios-contrib/os/hal/ports/RP/LLD/USBDv1/hal_usb_lld.o (symbol from plugin)
                                                  .build/obj_sofle_rev1/lib/chibios/os/hal/src/hal_usb.o (symbol from plugin)
usb_lld_stall_out                                 .build/obj_sofle_rev1/lib/chibios-contrib/os/hal/ports/RP/LLD/USBDv1/hal_usb_lld.o (symbol from plugin)
                                                  .build/obj_sofle_rev1/lib/chibios/os/hal/src/hal_usb.o (symbol from plugin)
usb_lld_start                                     .build/obj_sofle_rev1/lib/chibios-contrib/os/hal/ports/RP/LLD/USBDv1/hal_usb_lld.o (symbol from plugin)
                                                  .build/obj_sofle_rev1/lib/chibios/os/hal/src/hal_usb.o (symbol from plugin)
usb_lld_start_in                                  .build/obj_sofle_rev1/lib/chibios-contrib/os/hal/ports/RP/LLD/USBDv1/hal_usb_lld.o (symbol from plugin)
                                                  .build/obj_sofle_rev1/lib/chibios/os/hal/src/hal_usb.o (symbol from plugin)
usb_lld_start_out                                 .build/obj_sofle_rev1/lib/chibios-contrib/os/hal/ports/RP/LLD/USBDv1/hal_usb_lld.o (symbol from plugin)
                                                  .build/obj_sofle_rev1/lib/chibios/os/hal/src/hal_usb.o (symbol from plugin)
usb_lld_stop                                      .build/obj_sofle_rev1/lib/chibios-contrib/os/hal/ports/RP/LLD/USBDv1/hal_usb_lld.o (symbol from plugin)
                                                  .build/obj_sofle_rev1/lib/chibios/os/hal/src/hal_usb.o (symbol from plugin)
usb_main.c.814b8aa5                               /tmp/cc4Fj2P6debugobj
                                                  /tmp/ccxW9Zd7.ltrans0.ltrans.o
usb_prepare_out_ep_buffer                         .build/obj_sofle_rev1/lib/chibios-contrib/os/hal/ports/RP/LLD/USBDv1/hal_usb_lld.o (symbol from plugin)
usb_util.c.82cb40be                               /tmp/cc4Fj2P6debugobj
                                                  /tmp/ccxW9Zd7.ltrans0.ltrans.o
usb_util.c.cfd6d8ff                               /tmp/cc4Fj2P6debugobj
usb_vbus_state                                    .build/obj_sofle_rev1_EGF2/protocol/usb_util.o (symbol from plugin)
use_oneshot_swaphands                             .build/obj_sofle_rev1_EGF2/quantum/action_util.o (symbol from plugin)
                                                  .build/obj_sofle_rev1_EGF2/quantum/action.o (symbol from plugin)
velocikey.c.82fe5ea5                              /tmp/cc4Fj2P6debugobj
                                                  /tmp/ccxW9Zd7.ltrans0.ltrans.o
velocikey_accelerate                              .build/obj_sofle_rev1_EGF2/quantum/velocikey.o (symbol from plugin)
                                                  .build/obj_sofle_rev1_EGF2/quantum/quantum.o (symbol from plugin)
velocikey_decelerate                              .build/obj_sofle_rev1_EGF2/quantum/velocikey.o (symbol from plugin)
                                                  .build/obj_sofle_rev1_EGF2/quantum/keyboard.o (symbol from plugin)
velocikey_enabled                                 .build/obj_sofle_rev1_EGF2/quantum/velocikey.o (symbol from plugin)
                                                  .build/obj_sofle_rev1_EGF2/quantum/rgblight/rgblight.o (symbol from plugin)
                                                  .build/obj_sofle_rev1_EGF2/quantum/keyboard.o (symbol from plugin)
                                                  .build/obj_sofle_rev1_EGF2/quantum/quantum.o (symbol from plugin)
velocikey_match_speed                             .build/obj_sofle_rev1_EGF2/quantum/velocikey.o (symbol from plugin)
                                                  .build/obj_sofle_rev1_EGF2/quantum/rgblight/rgblight.o (symbol from plugin)
velocikey_toggle                                  .build/obj_sofle_rev1_EGF2/quantum/velocikey.o (symbol from plugin)
                                                  .build/obj_sofle_rev1_EGF2/quantum/quantum.o (symbol from plugin)
vfctprintf                                        .build/obj_sofle_rev1_EGF2/printf.o (symbol from plugin)
vfiprintf                                         /usr/lib/gcc/arm-none-eabi/8.3.1/../../../arm-none-eabi/lib/thumb/v6-m/nofp/libg_nano.a(lib_a-nano-vfprintf.o)
vfprintf                                          /usr/lib/gcc/arm-none-eabi/8.3.1/../../../arm-none-eabi/lib/thumb/v6-m/nofp/libg_nano.a(lib_a-nano-vfprintf.o)
vprintf                                           /tmp/ccxW9Zd7.ltrans0.ltrans.o
vsnprintf                                         /tmp/ccxW9Zd7.ltrans0.ltrans.o
vsprintf                                          /tmp/ccxW9Zd7.ltrans0.ltrans.o
wait.c.8557c778                                   /tmp/cc4Fj2P6debugobj
watchdog.c.90af1ddb                               /tmp/cc4Fj2P6debugobj
                                                  /tmp/ccxW9Zd7.ltrans0.ltrans.o
watchdog_caused_reboot                            .build/obj_sofle_rev1/./lib/pico-sdk/src/rp2_common/hardware_watchdog/watchdog.o (symbol from plugin)
watchdog_enable                                   .build/obj_sofle_rev1/./lib/pico-sdk/src/rp2_common/hardware_watchdog/watchdog.o (symbol from plugin)
watchdog_enable_caused_reboot                     .build/obj_sofle_rev1/./lib/pico-sdk/src/rp2_common/hardware_watchdog/watchdog.o (symbol from plugin)
watchdog_get_count                                .build/obj_sofle_rev1/./lib/pico-sdk/src/rp2_common/hardware_watchdog/watchdog.o (symbol from plugin)
watchdog_reboot                                   .build/obj_sofle_rev1/./lib/pico-sdk/src/rp2_common/hardware_watchdog/watchdog.o (symbol from plugin)
watchdog_start_tick                               .build/obj_sofle_rev1/./lib/pico-sdk/src/rp2_common/hardware_watchdog/watchdog.o (symbol from plugin)
                                                  .build/obj_sofle_rev1/./lib/pico-sdk/src/rp2_common/hardware_clocks/clocks.o (symbol from plugin)
watchdog_update                                   .build/obj_sofle_rev1/./lib/pico-sdk/src/rp2_common/hardware_watchdog/watchdog.o (symbol from plugin)
wear_leveling.c.52d6ffe4                          /tmp/cc4Fj2P6debugobj
                                                  /tmp/ccxW9Zd7.ltrans0.ltrans.o
wear_leveling_erase                               .build/obj_sofle_rev1_EGF2/wear_leveling.o (symbol from plugin)
                                                  .build/obj_sofle_rev1_EGF2/eeprom_wear_leveling.o (symbol from plugin)
wear_leveling_init                                .build/obj_sofle_rev1_EGF2/wear_leveling.o (symbol from plugin)
                                                  .build/obj_sofle_rev1_EGF2/eeprom_wear_leveling.o (symbol from plugin)
wear_leveling_read                                .build/obj_sofle_rev1_EGF2/wear_leveling.o (symbol from plugin)
                                                  .build/obj_sofle_rev1_EGF2/eeprom_wear_leveling.o (symbol from plugin)
wear_leveling_rp2040_flash.c.b95c330c             /tmp/cc4Fj2P6debugobj
                                                  /tmp/ccxW9Zd7.ltrans0.ltrans.o
wear_leveling_write                               .build/obj_sofle_rev1_EGF2/wear_leveling.o (symbol from plugin)
                                                  .build/obj_sofle_rev1_EGF2/eeprom_wear_leveling.o (symbol from plugin)
wpm.c.2d735ff5                                    /tmp/cc4Fj2P6debugobj
                                                  /tmp/ccxW9Zd7.ltrans0.ltrans.o
wpm_keycode                                       .build/obj_sofle_rev1_EGF2/quantum/wpm.o (symbol from plugin)
wpm_keycode_kb                                    .build/obj_sofle_rev1_EGF2/quantum/wpm.o (symbol from plugin)
wpm_keycode_user                                  .build/obj_sofle_rev1_EGF2/quantum/wpm.o (symbol from plugin)
ws2812_init                                       .build/obj_sofle_rev1_EGF2/ws2812_vendor.o (symbol from plugin)
ws2812_setleds                                    .build/obj_sofle_rev1_EGF2/ws2812_vendor.o (symbol from plugin)
                                                  .build/obj_sofle_rev1_EGF2/quantum/rgblight/rgblight.o (symbol from plugin)
ws2812_vendor.c.e3feb2a9                          /tmp/cc4Fj2P6debugobj
                                                  /tmp/ccxW9Zd7.ltrans0.ltrans.o
xosc.c.cecd8e24                                   /tmp/cc4Fj2P6debugobj
                                                  /tmp/ccxW9Zd7.ltrans0.ltrans.o
xosc_disable                                      .build/obj_sofle_rev1/./lib/pico-sdk/src/rp2_common/hardware_xosc/xosc.o (symbol from plugin)
xosc_dormant                                      .build/obj_sofle_rev1/./lib/pico-sdk/src/rp2_common/hardware_xosc/xosc.o (symbol from plugin)
xosc_init                                         .build/obj_sofle_rev1/./lib/pico-sdk/src/rp2_common/hardware_xosc/xosc.o (symbol from plugin)
                                                  .build/obj_sofle_rev1/./lib/pico-sdk/src/rp2_common/hardware_clocks/clocks.o (symbol from plugin)
